
add_arm:     file format elf32-littlearm


Disassembly of section .init:

00010158 <_init>:
   10158:	e92d4008 	push	{r3, lr}
   1015c:	eb0000b0 	bl	10424 <call_weak_fn>
   10160:	e8bd8008 	pop	{r3, pc}

Disassembly of section .text:

00010170 <abort>:
   10170:	e92d4080 	push	{r7, lr}
   10174:	eb000331 	bl	10e40 <__aeabi_read_tp>
   10178:	e59f523c 	ldr	r5, [pc, #572]	; 103bc <abort+0x24c>
   1017c:	e59f223c 	ldr	r2, [pc, #572]	; 103c0 <abort+0x250>
   10180:	e5953008 	ldr	r3, [r5, #8]
   10184:	e2406d13 	sub	r6, r0, #1216	; 0x4c0
   10188:	e24dde11 	sub	sp, sp, #272	; 0x110
   1018c:	e1530006 	cmp	r3, r6
   10190:	e5922000 	ldr	r2, [r2]
   10194:	e58d210c 	str	r2, [sp, #268]	; 0x10c
   10198:	e3a02000 	mov	r2, #0
   1019c:	0a000010 	beq	101e4 <abort+0x74>
   101a0:	e3a01001 	mov	r1, #1
   101a4:	e1a02005 	mov	r2, r5
   101a8:	e3a04000 	mov	r4, #0
   101ac:	e5923000 	ldr	r3, [r2]
   101b0:	e1530004 	cmp	r3, r4
   101b4:	1a000005 	bne	101d0 <abort+0x60>
   101b8:	e1a00004 	mov	r0, r4
   101bc:	e3e03a0f 	mvn	r3, #61440	; 0xf000
   101c0:	e1a0e00f 	mov	lr, pc
   101c4:	e243f03f 	sub	pc, r3, #63	; 0x3f
   101c8:	3afffff7 	bcc	101ac <abort+0x3c>
   101cc:	e1a03004 	mov	r3, r4
   101d0:	e1530004 	cmp	r3, r4
   101d4:	0a000001 	beq	101e0 <abort+0x70>
   101d8:	e1a00005 	mov	r0, r5
   101dc:	eb0051e6 	bl	2497c <__lll_lock_wait_private>
   101e0:	e5856008 	str	r6, [r5, #8]
   101e4:	e5952004 	ldr	r2, [r5, #4]
   101e8:	e595300c 	ldr	r3, [r5, #12]
   101ec:	e2822001 	add	r2, r2, #1
   101f0:	e3530000 	cmp	r3, #0
   101f4:	e5852004 	str	r2, [r5, #4]
   101f8:	1a00000d 	bne	10234 <abort+0xc4>
   101fc:	e3a01001 	mov	r1, #1
   10200:	e1a02003 	mov	r2, r3
   10204:	e3a03020 	mov	r3, #32
   10208:	e585100c 	str	r1, [r5, #12]
   1020c:	e2533001 	subs	r3, r3, #1
   10210:	278d2103 	strcs	r2, [sp, r3, lsl #2]
   10214:	2afffffc 	bcs	1020c <abort+0x9c>
   10218:	e59d3000 	ldr	r3, [sp]
   1021c:	e1a0100d 	mov	r1, sp
   10220:	e3833020 	orr	r3, r3, #32
   10224:	e3a02000 	mov	r2, #0
   10228:	e3a00001 	mov	r0, #1
   1022c:	e58d3000 	str	r3, [sp]
   10230:	eb00ba5f 	bl	3ebb4 <__sigprocmask>
   10234:	e595300c 	ldr	r3, [r5, #12]
   10238:	e3530001 	cmp	r3, #1
   1023c:	1a000037 	bne	10320 <abort+0x1b0>
   10240:	e3a02000 	mov	r2, #0
   10244:	e5953004 	ldr	r3, [r5, #4]
   10248:	e585200c 	str	r2, [r5, #12]
   1024c:	e2433001 	sub	r3, r3, #1
   10250:	e1530002 	cmp	r3, r2
   10254:	e5853004 	str	r3, [r5, #4]
   10258:	1a000016 	bne	102b8 <abort+0x148>
   1025c:	e59f2158 	ldr	r2, [pc, #344]	; 103bc <abort+0x24c>
   10260:	e5853008 	str	r3, [r5, #8]
   10264:	e3a01000 	mov	r1, #0
   10268:	e5954000 	ldr	r4, [r5]
   1026c:	e5923000 	ldr	r3, [r2]
   10270:	e1530004 	cmp	r3, r4
   10274:	1a000005 	bne	10290 <abort+0x120>
   10278:	e1a00004 	mov	r0, r4
   1027c:	e3e03a0f 	mvn	r3, #61440	; 0xf000
   10280:	e1a0e00f 	mov	lr, pc
   10284:	e243f03f 	sub	pc, r3, #63	; 0x3f
   10288:	3afffff7 	bcc	1026c <abort+0xfc>
   1028c:	e1a03004 	mov	r3, r4
   10290:	e1540003 	cmp	r4, r3
   10294:	1afffff2 	bne	10264 <abort+0xf4>
   10298:	e3540001 	cmp	r4, #1
   1029c:	da000005 	ble	102b8 <abort+0x148>
   102a0:	e59f0114 	ldr	r0, [pc, #276]	; 103bc <abort+0x24c>
   102a4:	e3a01081 	mov	r1, #129	; 0x81
   102a8:	e3a02001 	mov	r2, #1
   102ac:	e3a03000 	mov	r3, #0
   102b0:	e3a070f0 	mov	r7, #240	; 0xf0
   102b4:	ef000000 	svc	0x00000000
   102b8:	e3a00006 	mov	r0, #6
   102bc:	eb00b9a2 	bl	3e94c <raise>
   102c0:	e5953008 	ldr	r3, [r5, #8]
   102c4:	e1530006 	cmp	r3, r6
   102c8:	0a000010 	beq	10310 <abort+0x1a0>
   102cc:	e3a01001 	mov	r1, #1
   102d0:	e3a04000 	mov	r4, #0
   102d4:	e59f20e0 	ldr	r2, [pc, #224]	; 103bc <abort+0x24c>
   102d8:	e5923000 	ldr	r3, [r2]
   102dc:	e1530004 	cmp	r3, r4
   102e0:	1a000005 	bne	102fc <abort+0x18c>
   102e4:	e1a00004 	mov	r0, r4
   102e8:	e3e03a0f 	mvn	r3, #61440	; 0xf000
   102ec:	e1a0e00f 	mov	lr, pc
   102f0:	e243f03f 	sub	pc, r3, #63	; 0x3f
   102f4:	3afffff7 	bcc	102d8 <abort+0x168>
   102f8:	e1a03004 	mov	r3, r4
   102fc:	e1530004 	cmp	r3, r4
   10300:	0a000001 	beq	1030c <abort+0x19c>
   10304:	e1a00002 	mov	r0, r2
   10308:	eb00519b 	bl	2497c <__lll_lock_wait_private>
   1030c:	e5856008 	str	r6, [r5, #8]
   10310:	e5953004 	ldr	r3, [r5, #4]
   10314:	e2833001 	add	r3, r3, #1
   10318:	e5853004 	str	r3, [r5, #4]
   1031c:	ea000001 	b	10328 <abort+0x1b8>
   10320:	e3530002 	cmp	r3, #2
   10324:	1a000010 	bne	1036c <abort+0x1fc>
   10328:	e3a03003 	mov	r3, #3
   1032c:	e3a02088 	mov	r2, #136	; 0x88
   10330:	e3a01000 	mov	r1, #0
   10334:	e28d0084 	add	r0, sp, #132	; 0x84
   10338:	e585300c 	str	r3, [r5, #12]
   1033c:	eb0070af 	bl	2c600 <memset>
   10340:	e3a03000 	mov	r3, #0
   10344:	e3a02021 	mov	r2, #33	; 0x21
   10348:	e58d3080 	str	r3, [sp, #128]	; 0x80
   1034c:	e3e03000 	mvn	r3, #0
   10350:	e28d1080 	add	r1, sp, #128	; 0x80
   10354:	e2522001 	subs	r2, r2, #1
   10358:	17813102 	strne	r3, [r1, r2, lsl #2]
   1035c:	1afffffc 	bne	10354 <abort+0x1e4>
   10360:	e3a00006 	mov	r0, #6
   10364:	e58d2104 	str	r2, [sp, #260]	; 0x104
   10368:	eb00ba01 	bl	3eb74 <__sigaction>
   1036c:	e595300c 	ldr	r3, [r5, #12]
   10370:	e3530003 	cmp	r3, #3
   10374:	1a000003 	bne	10388 <abort+0x218>
   10378:	e3a03004 	mov	r3, #4
   1037c:	e3a00006 	mov	r0, #6
   10380:	e585300c 	str	r3, [r5, #12]
   10384:	eb00b970 	bl	3e94c <raise>
   10388:	e595300c 	ldr	r3, [r5, #12]
   1038c:	e3530004 	cmp	r3, #4
   10390:	1a000002 	bne	103a0 <abort+0x230>
   10394:	e3a03005 	mov	r3, #5
   10398:	e585300c 	str	r3, [r5, #12]
   1039c:	e7f000f0 	udf	#0
   103a0:	e3530005 	cmp	r3, #5
   103a4:	1a000003 	bne	103b8 <abort+0x248>
   103a8:	e3a03006 	mov	r3, #6
   103ac:	e3a0007f 	mov	r0, #127	; 0x7f
   103b0:	e585300c 	str	r3, [r5, #12]
   103b4:	eb007522 	bl	2d844 <_exit>
   103b8:	e7f000f0 	udf	#0
   103bc:	0008b140 	.word	0x0008b140
   103c0:	00061ce8 	.word	0x00061ce8

000103c4 <_dl_start>:
   103c4:	e92d4010 	push	{r4, lr}
   103c8:	ebffff68 	bl	10170 <abort>

000103cc <_Unwind_GetDataRelBase>:
   103cc:	e92d4010 	push	{r4, lr}
   103d0:	ebffff66 	bl	10170 <abort>

000103d4 <_Unwind_GetTextRelBase>:
   103d4:	e92d4010 	push	{r4, lr}
   103d8:	ebfffffb 	bl	103cc <_Unwind_GetDataRelBase>

000103dc <fini>:
   103dc:	e59f0000 	ldr	r0, [pc]	; 103e4 <fini+0x8>
   103e0:	ea0124a5 	b	5967c <check_free.isra.0>
   103e4:	0008b54c 	.word	0x0008b54c

000103e8 <_start>:
   103e8:	e3a0b000 	mov	fp, #0
   103ec:	e3a0e000 	mov	lr, #0
   103f0:	e49d1004 	pop	{r1}		; (ldr r1, [sp], #4)
   103f4:	e1a0200d 	mov	r2, sp
   103f8:	e52d2004 	push	{r2}		; (str r2, [sp, #-4]!)
   103fc:	e52d0004 	push	{r0}		; (str r0, [sp, #-4]!)
   10400:	e59fc010 	ldr	ip, [pc, #16]	; 10418 <_start+0x30>
   10404:	e52dc004 	push	{ip}		; (str ip, [sp, #-4]!)
   10408:	e59f000c 	ldr	r0, [pc, #12]	; 1041c <_start+0x34>
   1040c:	e59f300c 	ldr	r3, [pc, #12]	; 10420 <_start+0x38>
   10410:	eb000082 	bl	10620 <__libc_start_main>
   10414:	ebffff55 	bl	10170 <abort>
   10418:	00010dfc 	.word	0x00010dfc
   1041c:	00010524 	.word	0x00010524
   10420:	00010d5c 	.word	0x00010d5c

00010424 <call_weak_fn>:
   10424:	e59f3014 	ldr	r3, [pc, #20]	; 10440 <call_weak_fn+0x1c>
   10428:	e59f2014 	ldr	r2, [pc, #20]	; 10444 <call_weak_fn+0x20>
   1042c:	e08f3003 	add	r3, pc, r3
   10430:	e7932002 	ldr	r2, [r3, r2]
   10434:	e3520000 	cmp	r2, #0
   10438:	012fff1e 	bxeq	lr
   1043c:	e1a00000 	nop			; (mov r0, r0)
   10440:	00079bcc 	.word	0x00079bcc
   10444:	00000080 	.word	0x00000080

00010448 <deregister_tm_clones>:
   10448:	e59f0018 	ldr	r0, [pc, #24]	; 10468 <deregister_tm_clones+0x20>
   1044c:	e59f3018 	ldr	r3, [pc, #24]	; 1046c <deregister_tm_clones+0x24>
   10450:	e1530000 	cmp	r3, r0
   10454:	012fff1e 	bxeq	lr
   10458:	e59f3010 	ldr	r3, [pc, #16]	; 10470 <deregister_tm_clones+0x28>
   1045c:	e3530000 	cmp	r3, #0
   10460:	012fff1e 	bxeq	lr
   10464:	e12fff13 	bx	r3
   10468:	0008ae74 	.word	0x0008ae74
   1046c:	0008ae74 	.word	0x0008ae74
   10470:	00000000 	.word	0x00000000

00010474 <register_tm_clones>:
   10474:	e59f0024 	ldr	r0, [pc, #36]	; 104a0 <register_tm_clones+0x2c>
   10478:	e59f1024 	ldr	r1, [pc, #36]	; 104a4 <register_tm_clones+0x30>
   1047c:	e0413000 	sub	r3, r1, r0
   10480:	e1a01fa3 	lsr	r1, r3, #31
   10484:	e0811143 	add	r1, r1, r3, asr #2
   10488:	e1b010c1 	asrs	r1, r1, #1
   1048c:	012fff1e 	bxeq	lr
   10490:	e59f3010 	ldr	r3, [pc, #16]	; 104a8 <register_tm_clones+0x34>
   10494:	e3530000 	cmp	r3, #0
   10498:	012fff1e 	bxeq	lr
   1049c:	e12fff13 	bx	r3
   104a0:	0008ae74 	.word	0x0008ae74
   104a4:	0008ae74 	.word	0x0008ae74
   104a8:	00000000 	.word	0x00000000

000104ac <__do_global_dtors_aux>:
   104ac:	e92d4010 	push	{r4, lr}
   104b0:	e59f402c 	ldr	r4, [pc, #44]	; 104e4 <__do_global_dtors_aux+0x38>
   104b4:	e5d43000 	ldrb	r3, [r4]
   104b8:	e3530000 	cmp	r3, #0
   104bc:	18bd8010 	popne	{r4, pc}
   104c0:	ebffffe0 	bl	10448 <deregister_tm_clones>
   104c4:	e59f301c 	ldr	r3, [pc, #28]	; 104e8 <__do_global_dtors_aux+0x3c>
   104c8:	e3530000 	cmp	r3, #0
   104cc:	0a000001 	beq	104d8 <__do_global_dtors_aux+0x2c>
   104d0:	e59f0014 	ldr	r0, [pc, #20]	; 104ec <__do_global_dtors_aux+0x40>
   104d4:	e1a00000 	nop			; (mov r0, r0)
   104d8:	e3a03001 	mov	r3, #1
   104dc:	e5c43000 	strb	r3, [r4]
   104e0:	e8bd8010 	pop	{r4, pc}
   104e4:	0008ae78 	.word	0x0008ae78
   104e8:	00000000 	.word	0x00000000
   104ec:	00078fe4 	.word	0x00078fe4

000104f0 <frame_dummy>:
   104f0:	e59f3020 	ldr	r3, [pc, #32]	; 10518 <frame_dummy+0x28>
   104f4:	e3530000 	cmp	r3, #0
   104f8:	0a000005 	beq	10514 <frame_dummy+0x24>
   104fc:	e92d4010 	push	{r4, lr}
   10500:	e59f1014 	ldr	r1, [pc, #20]	; 1051c <frame_dummy+0x2c>
   10504:	e59f0014 	ldr	r0, [pc, #20]	; 10520 <frame_dummy+0x30>
   10508:	e1a00000 	nop			; (mov r0, r0)
   1050c:	e8bd4010 	pop	{r4, lr}
   10510:	eaffffd7 	b	10474 <register_tm_clones>
   10514:	eaffffd6 	b	10474 <register_tm_clones>
   10518:	00000000 	.word	0x00000000
   1051c:	0008ae7c 	.word	0x0008ae7c
   10520:	00078fe4 	.word	0x00078fe4

00010524 <main>:
   10524:	e92d4800 	push	{fp, lr}
   10528:	e28db004 	add	fp, sp, #4
   1052c:	e24dd020 	sub	sp, sp, #32
   10530:	e50b0020 	str	r0, [fp, #-32]	; 0xffffffe0
   10534:	e50b1024 	str	r1, [fp, #-36]	; 0xffffffdc
   10538:	e59f30d4 	ldr	r3, [pc, #212]	; 10614 <main+0xf0>
   1053c:	e5933000 	ldr	r3, [r3]
   10540:	e50b3008 	str	r3, [fp, #-8]
   10544:	e3a03000 	mov	r3, #0
   10548:	e51b3024 	ldr	r3, [fp, #-36]	; 0xffffffdc
   1054c:	e2833004 	add	r3, r3, #4
   10550:	e5933000 	ldr	r3, [r3]
   10554:	e1a00003 	mov	r0, r3
   10558:	eb0014de 	bl	158d8 <atoi>
   1055c:	e50b0014 	str	r0, [fp, #-20]	; 0xffffffec
   10560:	e3a0301e 	mov	r3, #30
   10564:	e50b3010 	str	r3, [fp, #-16]
   10568:	e3a0300a 	mov	r3, #10
   1056c:	e50b300c 	str	r3, [fp, #-12]
   10570:	e3a03ffa 	mov	r3, #1000	; 0x3e8
   10574:	e50b301c 	str	r3, [fp, #-28]	; 0xffffffe4
   10578:	e3a03000 	mov	r3, #0
   1057c:	e50b3018 	str	r3, [fp, #-24]	; 0xffffffe8
   10580:	ea00000b 	b	105b4 <main+0x90>
   10584:	e51b3018 	ldr	r3, [fp, #-24]	; 0xffffffe8
   10588:	e3530002 	cmp	r3, #2
   1058c:	ca000005 	bgt	105a8 <main+0x84>
   10590:	e51b2010 	ldr	r2, [fp, #-16]
   10594:	e51b300c 	ldr	r3, [fp, #-12]
   10598:	e0822003 	add	r2, r2, r3
   1059c:	e51b301c 	ldr	r3, [fp, #-28]	; 0xffffffe4
   105a0:	e0823003 	add	r3, r2, r3
   105a4:	e50b301c 	str	r3, [fp, #-28]	; 0xffffffe4
   105a8:	e51b3018 	ldr	r3, [fp, #-24]	; 0xffffffe8
   105ac:	e2833001 	add	r3, r3, #1
   105b0:	e50b3018 	str	r3, [fp, #-24]	; 0xffffffe8
   105b4:	e51b2018 	ldr	r2, [fp, #-24]	; 0xffffffe8
   105b8:	e51b3014 	ldr	r3, [fp, #-20]	; 0xffffffec
   105bc:	e1520003 	cmp	r2, r3
   105c0:	baffffef 	blt	10584 <main+0x60>
   105c4:	e24b301c 	sub	r3, fp, #28
   105c8:	e1a01003 	mov	r1, r3
   105cc:	e59f0044 	ldr	r0, [pc, #68]	; 10618 <main+0xf4>
   105d0:	eb001b3f 	bl	172d4 <_IO_printf>
   105d4:	e51b301c 	ldr	r3, [fp, #-28]	; 0xffffffe4
   105d8:	e1a02003 	mov	r2, r3
   105dc:	e51b1014 	ldr	r1, [fp, #-20]	; 0xffffffec
   105e0:	e59f0034 	ldr	r0, [pc, #52]	; 1061c <main+0xf8>
   105e4:	eb001b3a 	bl	172d4 <_IO_printf>
   105e8:	e3a03000 	mov	r3, #0
   105ec:	e59f2020 	ldr	r2, [pc, #32]	; 10614 <main+0xf0>
   105f0:	e5921000 	ldr	r1, [r2]
   105f4:	e51b2008 	ldr	r2, [fp, #-8]
   105f8:	e0321001 	eors	r1, r2, r1
   105fc:	e3a02000 	mov	r2, #0
   10600:	0a000000 	beq	10608 <main+0xe4>
   10604:	eb008008 	bl	3062c <__stack_chk_fail>
   10608:	e1a00003 	mov	r0, r3
   1060c:	e24bd004 	sub	sp, fp, #4
   10610:	e8bd8800 	pop	{fp, pc}
   10614:	000618b4 	.word	0x000618b4
   10618:	0006188c 	.word	0x0006188c
   1061c:	0006189c 	.word	0x0006189c

00010620 <__libc_start_main>:
   10620:	e92d4080 	push	{r7, lr}
   10624:	e59fc310 	ldr	ip, [pc, #784]	; 1093c <__libc_start_main+0x31c>
   10628:	e24ddf4a 	sub	sp, sp, #296	; 0x128
   1062c:	e35c0000 	cmp	ip, #0
   10630:	e98d0006 	stmib	sp, {r1, r2}
   10634:	159c2000 	ldrne	r2, [ip]
   10638:	01a0200c 	moveq	r2, ip
   1063c:	116f2f12 	clzne	r2, r2
   10640:	e1a04003 	mov	r4, r3
   10644:	e59d3004 	ldr	r3, [sp, #4]
   10648:	e59de008 	ldr	lr, [sp, #8]
   1064c:	e58d000c 	str	r0, [sp, #12]
   10650:	e2830001 	add	r0, r3, #1
   10654:	e59f32e4 	ldr	r3, [pc, #740]	; 10940 <__libc_start_main+0x320>
   10658:	e08e0100 	add	r0, lr, r0, lsl #2
   1065c:	e5830000 	str	r0, [r3]
   10660:	e59d1138 	ldr	r1, [sp, #312]	; 0x138
   10664:	e59fc2d8 	ldr	ip, [pc, #728]	; 10944 <__libc_start_main+0x324>
   10668:	e59f32d8 	ldr	r3, [pc, #728]	; 10948 <__libc_start_main+0x328>
   1066c:	11a022a2 	lsrne	r2, r2, #5
   10670:	e58c2000 	str	r2, [ip]
   10674:	e5831000 	str	r1, [r3]
   10678:	e4902004 	ldr	r2, [r0], #4
   1067c:	e3520000 	cmp	r2, #0
   10680:	1afffffc 	bne	10678 <__libc_start_main+0x58>
   10684:	eb0081ca 	bl	30db4 <_dl_aux_init>
   10688:	e59f22bc 	ldr	r2, [pc, #700]	; 1094c <__libc_start_main+0x32c>
   1068c:	e59f12bc 	ldr	r1, [pc, #700]	; 10950 <__libc_start_main+0x330>
   10690:	e3520000 	cmp	r2, #0
   10694:	01a03002 	moveq	r3, r2
   10698:	13a03001 	movne	r3, #1
   1069c:	e5910000 	ldr	r0, [r1]
   106a0:	e3500000 	cmp	r0, #0
   106a4:	13a03000 	movne	r3, #0
   106a8:	02033001 	andeq	r3, r3, #1
   106ac:	e3530000 	cmp	r3, #0
   106b0:	1a000014 	bne	10708 <__libc_start_main+0xe8>
   106b4:	eb0085ae 	bl	31d74 <__libc_init_secure>
   106b8:	e59f3280 	ldr	r3, [pc, #640]	; 10940 <__libc_start_main+0x320>
   106bc:	e59f5290 	ldr	r5, [pc, #656]	; 10954 <__libc_start_main+0x334>
   106c0:	e5930000 	ldr	r0, [r3]
   106c4:	eb00804e 	bl	30804 <__tunables_init>
   106c8:	e59f7288 	ldr	r7, [pc, #648]	; 10958 <__libc_start_main+0x338>
   106cc:	e59f6288 	ldr	r6, [pc, #648]	; 1095c <__libc_start_main+0x33c>
   106d0:	ea000004 	b	106e8 <__libc_start_main+0xc8>
   106d4:	e5983000 	ldr	r3, [r8]
   106d8:	e5960000 	ldr	r0, [r6]
   106dc:	e12fff33 	blx	r3
   106e0:	e2855008 	add	r5, r5, #8
   106e4:	e5880000 	str	r0, [r8]
   106e8:	e1550007 	cmp	r5, r7
   106ec:	2a000014 	bcs	10744 <__libc_start_main+0x124>
   106f0:	e5d53004 	ldrb	r3, [r5, #4]
   106f4:	e5958000 	ldr	r8, [r5]
   106f8:	e35300a0 	cmp	r3, #160	; 0xa0
   106fc:	0afffff4 	beq	106d4 <__libc_start_main+0xb4>
   10700:	e59f0258 	ldr	r0, [pc, #600]	; 10960 <__libc_start_main+0x340>
   10704:	eb003bde 	bl	1f684 <__libc_fatal>
   10708:	e1d232ba 	ldrh	r3, [r2, #42]	; 0x2a
   1070c:	e3530020 	cmp	r3, #32
   10710:	0a000004 	beq	10728 <__libc_start_main+0x108>
   10714:	e3a020b4 	mov	r2, #180	; 0xb4
   10718:	e59f3244 	ldr	r3, [pc, #580]	; 10964 <__libc_start_main+0x344>
   1071c:	e59f1244 	ldr	r1, [pc, #580]	; 10968 <__libc_start_main+0x348>
   10720:	e59f0244 	ldr	r0, [pc, #580]	; 1096c <__libc_start_main+0x34c>
   10724:	eb00022e 	bl	10fe4 <__assert_fail>
   10728:	e592301c 	ldr	r3, [r2, #28]
   1072c:	e1d202bc 	ldrh	r0, [r2, #44]	; 0x2c
   10730:	e0832002 	add	r2, r3, r2
   10734:	e59f3234 	ldr	r3, [pc, #564]	; 10970 <__libc_start_main+0x350>
   10738:	e5812000 	str	r2, [r1]
   1073c:	e5830000 	str	r0, [r3]
   10740:	eaffffdb 	b	106b4 <__libc_start_main+0x94>
   10744:	eb0000d0 	bl	10a8c <__libc_setup_tls>
   10748:	e59f2224 	ldr	r2, [pc, #548]	; 10974 <__libc_start_main+0x354>
   1074c:	e59f31f0 	ldr	r3, [pc, #496]	; 10944 <__libc_start_main+0x324>
   10750:	e5922000 	ldr	r2, [r2]
   10754:	e5931000 	ldr	r1, [r3]
   10758:	e5d20001 	ldrb	r0, [r2, #1]
   1075c:	e5d23000 	ldrb	r3, [r2]
   10760:	e3510000 	cmp	r1, #0
   10764:	e5d21002 	ldrb	r1, [r2, #2]
   10768:	e1833400 	orr	r3, r3, r0, lsl #8
   1076c:	e5d22003 	ldrb	r2, [r2, #3]
   10770:	e1833801 	orr	r3, r3, r1, lsl #16
   10774:	e1833c02 	orr	r3, r3, r2, lsl #24
   10778:	e59f21f8 	ldr	r2, [pc, #504]	; 10978 <__libc_start_main+0x358>
   1077c:	e3c330ff 	bic	r3, r3, #255	; 0xff
   10780:	e5823000 	str	r3, [r2]
   10784:	0a000059 	beq	108f0 <__libc_start_main+0x2d0>
   10788:	e59f31ec 	ldr	r3, [pc, #492]	; 1097c <__libc_start_main+0x35c>
   1078c:	e3530000 	cmp	r3, #0
   10790:	0a000000 	beq	10798 <__libc_start_main+0x178>
   10794:	e1a00000 	nop			; (mov r0, r0)
   10798:	e3a02004 	mov	r2, #4
   1079c:	e59f31d0 	ldr	r3, [pc, #464]	; 10974 <__libc_start_main+0x354>
   107a0:	e28d0010 	add	r0, sp, #16
   107a4:	e5931000 	ldr	r1, [r3]
   107a8:	e0811002 	add	r1, r1, r2
   107ac:	eb006fd3 	bl	2c700 <memcpy>
   107b0:	e59d1134 	ldr	r1, [sp, #308]	; 0x134
   107b4:	e59d2010 	ldr	r2, [sp, #16]
   107b8:	e59f31b8 	ldr	r3, [pc, #440]	; 10978 <__libc_start_main+0x358>
   107bc:	e3510000 	cmp	r1, #0
   107c0:	e5832004 	str	r2, [r3, #4]
   107c4:	0a000003 	beq	107d8 <__libc_start_main+0x1b8>
   107c8:	e3a02000 	mov	r2, #0
   107cc:	e59d0134 	ldr	r0, [sp, #308]	; 0x134
   107d0:	e1a01002 	mov	r1, r2
   107d4:	eb00177d 	bl	165d0 <__cxa_atexit>
   107d8:	e59f3160 	ldr	r3, [pc, #352]	; 10940 <__libc_start_main+0x320>
   107dc:	e59d1008 	ldr	r1, [sp, #8]
   107e0:	e5932000 	ldr	r2, [r3]
   107e4:	e59d0004 	ldr	r0, [sp, #4]
   107e8:	eb0085c9 	bl	31f14 <__libc_init_first>
   107ec:	e59d3130 	ldr	r3, [sp, #304]	; 0x130
   107f0:	e3530000 	cmp	r3, #0
   107f4:	0a000003 	beq	10808 <__libc_start_main+0x1e8>
   107f8:	e3a02000 	mov	r2, #0
   107fc:	e59d0130 	ldr	r0, [sp, #304]	; 0x130
   10800:	e1a01002 	mov	r1, r2
   10804:	eb001771 	bl	165d0 <__cxa_atexit>
   10808:	e59f3170 	ldr	r3, [pc, #368]	; 10980 <__libc_start_main+0x360>
   1080c:	e5933000 	ldr	r3, [r3]
   10810:	e3530000 	cmp	r3, #0
   10814:	1a000033 	bne	108e8 <__libc_start_main+0x2c8>
   10818:	e3540000 	cmp	r4, #0
   1081c:	0a000004 	beq	10834 <__libc_start_main+0x214>
   10820:	e59f3118 	ldr	r3, [pc, #280]	; 10940 <__libc_start_main+0x320>
   10824:	e59d1008 	ldr	r1, [sp, #8]
   10828:	e5932000 	ldr	r2, [r3]
   1082c:	e59d0004 	ldr	r0, [sp, #4]
   10830:	e12fff34 	blx	r4
   10834:	e3a01000 	mov	r1, #0
   10838:	e1a00001 	mov	r0, r1
   1083c:	eb007f88 	bl	30664 <_dl_debug_initialize>
   10840:	e28d0010 	add	r0, sp, #16
   10844:	eb001421 	bl	158d0 <_setjmp>
   10848:	e3500000 	cmp	r0, #0
   1084c:	1a00000d 	bne	10888 <__libc_start_main+0x268>
   10850:	eb00017a 	bl	10e40 <__aeabi_read_tp>
   10854:	e1a03000 	mov	r3, r0
   10858:	e510c440 	ldr	ip, [r0, #-1088]	; 0xfffffbc0
   1085c:	e59f20dc 	ldr	r2, [pc, #220]	; 10940 <__libc_start_main+0x320>
   10860:	e58dc118 	str	ip, [sp, #280]	; 0x118
   10864:	e28dc010 	add	ip, sp, #16
   10868:	e5922000 	ldr	r2, [r2]
   1086c:	e503c440 	str	ip, [r3, #-1088]	; 0xfffffbc0
   10870:	e5133444 	ldr	r3, [r3, #-1092]	; 0xfffffbbc
   10874:	e99d0003 	ldmib	sp, {r0, r1}
   10878:	e58d311c 	str	r3, [sp, #284]	; 0x11c
   1087c:	e59d300c 	ldr	r3, [sp, #12]
   10880:	e12fff33 	blx	r3
   10884:	eb0016a5 	bl	16320 <exit>
   10888:	e1a00000 	nop			; (mov r0, r0)
   1088c:	e59f20f0 	ldr	r2, [pc, #240]	; 10984 <__libc_start_main+0x364>
   10890:	e5924000 	ldr	r4, [r2]
   10894:	e2441001 	sub	r1, r4, #1
   10898:	e5923000 	ldr	r3, [r2]
   1089c:	e1530004 	cmp	r3, r4
   108a0:	1a000005 	bne	108bc <__libc_start_main+0x29c>
   108a4:	e1a00004 	mov	r0, r4
   108a8:	e3e03a0f 	mvn	r3, #61440	; 0xf000
   108ac:	e1a0e00f 	mov	lr, pc
   108b0:	e243f03f 	sub	pc, r3, #63	; 0x3f
   108b4:	3afffff7 	bcc	10898 <__libc_start_main+0x278>
   108b8:	e1a03004 	mov	r3, r4
   108bc:	e1540003 	cmp	r4, r3
   108c0:	1afffff2 	bne	10890 <__libc_start_main+0x270>
   108c4:	e3540001 	cmp	r4, #1
   108c8:	0a000004 	beq	108e0 <__libc_start_main+0x2c0>
   108cc:	e3a03000 	mov	r3, #0
   108d0:	e3a07001 	mov	r7, #1
   108d4:	e1a00003 	mov	r0, r3
   108d8:	ef000000 	svc	0x00000000
   108dc:	eafffffc 	b	108d4 <__libc_start_main+0x2b4>
   108e0:	e3a00000 	mov	r0, #0
   108e4:	eaffffe6 	b	10884 <__libc_start_main+0x264>
   108e8:	eb00005b 	bl	10a5c <__libc_check_standard_fds>
   108ec:	eaffffc9 	b	10818 <__libc_start_main+0x1f8>
   108f0:	eb008544 	bl	31e08 <_dl_discover_osversion>
   108f4:	e2503000 	subs	r3, r0, #0
   108f8:	ba00000a 	blt	10928 <__libc_start_main+0x308>
   108fc:	e59f2084 	ldr	r2, [pc, #132]	; 10988 <__libc_start_main+0x368>
   10900:	e5922000 	ldr	r2, [r2]
   10904:	e3520000 	cmp	r2, #0
   10908:	1a000008 	bne	10930 <__libc_start_main+0x310>
   1090c:	e59f2074 	ldr	r2, [pc, #116]	; 10988 <__libc_start_main+0x368>
   10910:	e5823000 	str	r3, [r2]
   10914:	e59f2070 	ldr	r2, [pc, #112]	; 1098c <__libc_start_main+0x36c>
   10918:	e1530002 	cmp	r3, r2
   1091c:	aaffff99 	bge	10788 <__libc_start_main+0x168>
   10920:	e59f0068 	ldr	r0, [pc, #104]	; 10990 <__libc_start_main+0x370>
   10924:	eb003b56 	bl	1f684 <__libc_fatal>
   10928:	e59f0064 	ldr	r0, [pc, #100]	; 10994 <__libc_start_main+0x374>
   1092c:	eb003b54 	bl	1f684 <__libc_fatal>
   10930:	e1520003 	cmp	r2, r3
   10934:	9afffff6 	bls	10914 <__libc_start_main+0x2f4>
   10938:	eafffff3 	b	1090c <__libc_start_main+0x2ec>
   1093c:	00000000 	.word	0x00000000
   10940:	0008b3ec 	.word	0x0008b3ec
   10944:	0008ac30 	.word	0x0008ac30
   10948:	00089fd8 	.word	0x00089fd8
   1094c:	00010000 	.word	0x00010000
   10950:	0008b880 	.word	0x0008b880
   10954:	00010158 	.word	0x00010158
   10958:	00010158 	.word	0x00010158
   1095c:	0008b408 	.word	0x0008b408
   10960:	000618f8 	.word	0x000618f8
   10964:	00061964 	.word	0x00061964
   10968:	000618b8 	.word	0x000618b8
   1096c:	000618c8 	.word	0x000618c8
   10970:	0008b8a0 	.word	0x0008b8a0
   10974:	00089f88 	.word	0x00089f88
   10978:	00089b20 	.word	0x00089b20
   1097c:	00000000 	.word	0x00000000
   10980:	00089fdc 	.word	0x00089fdc
   10984:	00000000 	.word	0x00000000
   10988:	0008b8b0 	.word	0x0008b8b0
   1098c:	00030200 	.word	0x00030200
   10990:	00061924 	.word	0x00061924
   10994:	0006193c 	.word	0x0006193c

00010998 <check_one_fd>:
   10998:	e92d40f0 	push	{r4, r5, r6, r7, lr}
   1099c:	e1a05001 	mov	r5, r1
   109a0:	e24dd06c 	sub	sp, sp, #108	; 0x6c
   109a4:	e3a01001 	mov	r1, #1
   109a8:	e1a04000 	mov	r4, r0
   109ac:	eb0078b4 	bl	2ec84 <__fcntl64_nocancel>
   109b0:	e3700001 	cmn	r0, #1
   109b4:	0a000001 	beq	109c0 <check_one_fd+0x28>
   109b8:	e28dd06c 	add	sp, sp, #108	; 0x6c
   109bc:	e8bd80f0 	pop	{r4, r5, r6, r7, pc}
   109c0:	eb00011e 	bl	10e40 <__aeabi_read_tp>
   109c4:	e59f307c 	ldr	r3, [pc, #124]	; 10a48 <check_one_fd+0xb0>
   109c8:	e79f3003 	ldr	r3, [pc, r3]
   109cc:	e7903003 	ldr	r3, [r0, r3]
   109d0:	e3530009 	cmp	r3, #9
   109d4:	1afffff7 	bne	109b8 <check_one_fd+0x20>
   109d8:	e3550902 	cmp	r5, #32768	; 0x8000
   109dc:	059f0068 	ldreq	r0, [pc, #104]	; 10a4c <check_one_fd+0xb4>
   109e0:	159f0068 	ldrne	r0, [pc, #104]	; 10a50 <check_one_fd+0xb8>
   109e4:	e1a01005 	mov	r1, r5
   109e8:	e3a02000 	mov	r2, #0
   109ec:	03a07000 	moveq	r7, #0
   109f0:	13a07000 	movne	r7, #0
   109f4:	059f6058 	ldreq	r6, [pc, #88]	; 10a54 <check_one_fd+0xbc>
   109f8:	159f6058 	ldrne	r6, [pc, #88]	; 10a58 <check_one_fd+0xc0>
   109fc:	eb0078b8 	bl	2ece4 <__open_nocancel>
   10a00:	e1540000 	cmp	r4, r0
   10a04:	1a00000e 	bne	10a44 <check_one_fd+0xac>
   10a08:	e1a01004 	mov	r1, r4
   10a0c:	e1a0200d 	mov	r2, sp
   10a10:	e3a00003 	mov	r0, #3
   10a14:	eb007586 	bl	2e034 <___fxstat64>
   10a18:	e3500000 	cmp	r0, #0
   10a1c:	1a000008 	bne	10a44 <check_one_fd+0xac>
   10a20:	e59d3010 	ldr	r3, [sp, #16]
   10a24:	e2033a0f 	and	r3, r3, #61440	; 0xf000
   10a28:	e3530a02 	cmp	r3, #8192	; 0x2000
   10a2c:	1a000004 	bne	10a44 <check_one_fd+0xac>
   10a30:	e28d3020 	add	r3, sp, #32
   10a34:	e893000c 	ldm	r3, {r2, r3}
   10a38:	e1530007 	cmp	r3, r7
   10a3c:	01520006 	cmpeq	r2, r6
   10a40:	0affffdc 	beq	109b8 <check_one_fd+0x20>
   10a44:	e7f000f0 	udf	#0
   10a48:	00079678 	.word	0x00079678
   10a4c:	00061984 	.word	0x00061984
   10a50:	00061978 	.word	0x00061978
   10a54:	00000103 	.word	0x00000103
   10a58:	00000107 	.word	0x00000107

00010a5c <__libc_check_standard_fds>:
   10a5c:	e92d4010 	push	{r4, lr}
   10a60:	e3a00000 	mov	r0, #0
   10a64:	e59f101c 	ldr	r1, [pc, #28]	; 10a88 <__libc_check_standard_fds+0x2c>
   10a68:	ebffffca 	bl	10998 <check_one_fd>
   10a6c:	e3a01902 	mov	r1, #32768	; 0x8000
   10a70:	e3a00001 	mov	r0, #1
   10a74:	ebffffc7 	bl	10998 <check_one_fd>
   10a78:	e8bd4010 	pop	{r4, lr}
   10a7c:	e3a01902 	mov	r1, #32768	; 0x8000
   10a80:	e3a00002 	mov	r0, #2
   10a84:	eaffffc3 	b	10998 <check_one_fd>
   10a88:	00008001 	.word	0x00008001

00010a8c <__libc_setup_tls>:
   10a8c:	e92d4ff0 	push	{r4, r5, r6, r7, r8, r9, sl, fp, lr}
   10a90:	e59f2270 	ldr	r2, [pc, #624]	; 10d08 <__libc_setup_tls+0x27c>
   10a94:	e59f3270 	ldr	r3, [pc, #624]	; 10d0c <__libc_setup_tls+0x280>
   10a98:	e5921000 	ldr	r1, [r2]
   10a9c:	e5936000 	ldr	r6, [r3]
   10aa0:	e3510000 	cmp	r1, #0
   10aa4:	e24dd01c 	sub	sp, sp, #28
   10aa8:	0a00007c 	beq	10ca0 <__libc_setup_tls+0x214>
   10aac:	e59f325c 	ldr	r3, [pc, #604]	; 10d10 <__libc_setup_tls+0x284>
   10ab0:	e5932000 	ldr	r2, [r3]
   10ab4:	e0812282 	add	r2, r1, r2, lsl #5
   10ab8:	e1510002 	cmp	r1, r2
   10abc:	3a000003 	bcc	10ad0 <__libc_setup_tls+0x44>
   10ac0:	ea000082 	b	10cd0 <__libc_setup_tls+0x244>
   10ac4:	e2811020 	add	r1, r1, #32
   10ac8:	e1510002 	cmp	r1, r2
   10acc:	2a000066 	bcs	10c6c <__libc_setup_tls+0x1e0>
   10ad0:	e5913000 	ldr	r3, [r1]
   10ad4:	e3530007 	cmp	r3, #7
   10ad8:	1afffff9 	bne	10ac4 <__libc_setup_tls+0x38>
   10adc:	e591501c 	ldr	r5, [r1, #28]
   10ae0:	e5963000 	ldr	r3, [r6]
   10ae4:	e3550010 	cmp	r5, #16
   10ae8:	21a02005 	movcs	r2, r5
   10aec:	33a02010 	movcc	r2, #16
   10af0:	e5917008 	ldr	r7, [r1, #8]
   10af4:	e3550001 	cmp	r5, #1
   10af8:	e0837007 	add	r7, r3, r7
   10afc:	e5913010 	ldr	r3, [r1, #16]
   10b00:	21a0b005 	movcs	fp, r5
   10b04:	33a0b001 	movcc	fp, #1
   10b08:	e58d2004 	str	r2, [sp, #4]
   10b0c:	e2424001 	sub	r4, r2, #1
   10b10:	e3550000 	cmp	r5, #0
   10b14:	e2622000 	rsb	r2, r2, #0
   10b18:	e591a014 	ldr	sl, [r1, #20]
   10b1c:	e58d200c 	str	r2, [sp, #12]
   10b20:	e58d3008 	str	r3, [sp, #8]
   10b24:	0a000070 	beq	10cec <__libc_setup_tls+0x260>
   10b28:	e1a0100b 	mov	r1, fp
   10b2c:	e2850007 	add	r0, r5, #7
   10b30:	eb0137e7 	bl	5ead4 <__udivsi3>
   10b34:	e009009b 	mul	r9, fp, r0
   10b38:	e1a01007 	mov	r1, r7
   10b3c:	e1a02009 	mov	r2, r9
   10b40:	e59f31cc 	ldr	r3, [pc, #460]	; 10d14 <__libc_setup_tls+0x288>
   10b44:	e58d2014 	str	r2, [sp, #20]
   10b48:	e5930000 	ldr	r0, [r3]
   10b4c:	e59d3004 	ldr	r3, [sp, #4]
   10b50:	e2800d13 	add	r0, r0, #1216	; 0x4c0
   10b54:	e080000a 	add	r0, r0, sl
   10b58:	e0800003 	add	r0, r0, r3
   10b5c:	e0800009 	add	r0, r0, r9
   10b60:	e58d1010 	str	r1, [sp, #16]
   10b64:	eb0078ee 	bl	2ef24 <__sbrk>
   10b68:	e3a0e03e 	mov	lr, #62	; 0x3e
   10b6c:	e3a0c000 	mov	ip, #0
   10b70:	e59d300c 	ldr	r3, [sp, #12]
   10b74:	e2800d13 	add	r0, r0, #1216	; 0x4c0
   10b78:	e0804004 	add	r4, r0, r4
   10b7c:	e0044003 	and	r4, r4, r3
   10b80:	e59f8190 	ldr	r8, [pc, #400]	; 10d18 <__libc_setup_tls+0x28c>
   10b84:	e59d2014 	ldr	r2, [sp, #20]
   10b88:	e59d1010 	ldr	r1, [sp, #16]
   10b8c:	e0840009 	add	r0, r4, r9
   10b90:	e5880010 	str	r0, [r8, #16]
   10b94:	e588e000 	str	lr, [r8]
   10b98:	e588c014 	str	ip, [r8, #20]
   10b9c:	e5862244 	str	r2, [r6, #580]	; 0x244
   10ba0:	e2888008 	add	r8, r8, #8
   10ba4:	e59d2008 	ldr	r2, [sp, #8]
   10ba8:	e58d100c 	str	r1, [sp, #12]
   10bac:	e59f7168 	ldr	r7, [pc, #360]	; 10d1c <__libc_setup_tls+0x290>
   10bb0:	eb006ed2 	bl	2c700 <memcpy>
   10bb4:	e1a00004 	mov	r0, r4
   10bb8:	e5848000 	str	r8, [r4]
   10bbc:	ef000000 	svc	0x00000000
   10bc0:	e3700a01 	cmn	r0, #4096	; 0x1000
   10bc4:	e59d100c 	ldr	r1, [sp, #12]
   10bc8:	9a000001 	bls	10bd4 <__libc_setup_tls+0x148>
   10bcc:	e59f014c 	ldr	r0, [pc, #332]	; 10d20 <__libc_setup_tls+0x294>
   10bd0:	eb003aab 	bl	1f684 <__libc_fatal>
   10bd4:	e3a00001 	mov	r0, #1
   10bd8:	e3a0c040 	mov	ip, #64	; 0x40
   10bdc:	e59d2008 	ldr	r2, [sp, #8]
   10be0:	e5861230 	str	r1, [r6, #560]	; 0x230
   10be4:	e59f1138 	ldr	r1, [pc, #312]	; 10d24 <__libc_setup_tls+0x298>
   10be8:	e3550000 	cmp	r5, #0
   10bec:	e586a238 	str	sl, [r6, #568]	; 0x238
   10bf0:	e5810000 	str	r0, [r1]
   10bf4:	108aa005 	addne	sl, sl, r5
   10bf8:	e5862234 	str	r2, [r6, #564]	; 0x234
   10bfc:	e59f1124 	ldr	r1, [pc, #292]	; 10d28 <__libc_setup_tls+0x29c>
   10c00:	e59f2124 	ldr	r2, [pc, #292]	; 10d2c <__libc_setup_tls+0x2a0>
   10c04:	124aa001 	subne	sl, sl, #1
   10c08:	e5860248 	str	r0, [r6, #584]	; 0x248
   10c0c:	e582c000 	str	ip, [r2]
   10c10:	e5826014 	str	r6, [r2, #20]
   10c14:	e5812000 	str	r2, [r1]
   10c18:	e1a0000a 	mov	r0, sl
   10c1c:	e1a0100b 	mov	r1, fp
   10c20:	e586523c 	str	r5, [r6, #572]	; 0x23c
   10c24:	eb0137aa 	bl	5ead4 <__udivsi3>
   10c28:	e3a0c001 	mov	ip, #1
   10c2c:	e59f30e0 	ldr	r3, [pc, #224]	; 10d14 <__libc_setup_tls+0x288>
   10c30:	e029909b 	mla	r9, fp, r0, r9
   10c34:	e5932000 	ldr	r2, [r3]
   10c38:	e59f10f0 	ldr	r1, [pc, #240]	; 10d30 <__libc_setup_tls+0x2a4>
   10c3c:	e282200f 	add	r2, r2, #15
   10c40:	e0822009 	add	r2, r2, r9
   10c44:	e3c2200f 	bic	r2, r2, #15
   10c48:	e5819000 	str	r9, [r1]
   10c4c:	e59f00e0 	ldr	r0, [pc, #224]	; 10d34 <__libc_setup_tls+0x2a8>
   10c50:	e59f10e0 	ldr	r1, [pc, #224]	; 10d38 <__libc_setup_tls+0x2ac>
   10c54:	e5832000 	str	r2, [r3]
   10c58:	e59d3004 	ldr	r3, [sp, #4]
   10c5c:	e580c000 	str	ip, [r0]
   10c60:	e5813000 	str	r3, [r1]
   10c64:	e28dd01c 	add	sp, sp, #28
   10c68:	e8bd8ff0 	pop	{r4, r5, r6, r7, r8, r9, sl, fp, pc}
   10c6c:	e3a01000 	mov	r1, #0
   10c70:	e3a09008 	mov	r9, #8
   10c74:	e1a05001 	mov	r5, r1
   10c78:	e1a02009 	mov	r2, r9
   10c7c:	e1a0a001 	mov	sl, r1
   10c80:	e58d1008 	str	r1, [sp, #8]
   10c84:	e3e0300f 	mvn	r3, #15
   10c88:	e58d300c 	str	r3, [sp, #12]
   10c8c:	e3a03010 	mov	r3, #16
   10c90:	e3a0400f 	mov	r4, #15
   10c94:	e3a0b001 	mov	fp, #1
   10c98:	e58d3004 	str	r3, [sp, #4]
   10c9c:	eaffffa7 	b	10b40 <__libc_setup_tls+0xb4>
   10ca0:	e3e0300f 	mvn	r3, #15
   10ca4:	e3a09008 	mov	r9, #8
   10ca8:	e58d300c 	str	r3, [sp, #12]
   10cac:	e3a03010 	mov	r3, #16
   10cb0:	e1a02009 	mov	r2, r9
   10cb4:	e3a0400f 	mov	r4, #15
   10cb8:	e3a0b001 	mov	fp, #1
   10cbc:	e1a05001 	mov	r5, r1
   10cc0:	e1a0a001 	mov	sl, r1
   10cc4:	e58d3004 	str	r3, [sp, #4]
   10cc8:	e58d1008 	str	r1, [sp, #8]
   10ccc:	eaffff9b 	b	10b40 <__libc_setup_tls+0xb4>
   10cd0:	e3a05000 	mov	r5, #0
   10cd4:	e3a09008 	mov	r9, #8
   10cd8:	e1a01005 	mov	r1, r5
   10cdc:	e1a02009 	mov	r2, r9
   10ce0:	e1a0a005 	mov	sl, r5
   10ce4:	e58d5008 	str	r5, [sp, #8]
   10ce8:	eaffffe5 	b	10c84 <__libc_setup_tls+0x1f8>
   10cec:	e3a09008 	mov	r9, #8
   10cf0:	e3a03010 	mov	r3, #16
   10cf4:	e1a01007 	mov	r1, r7
   10cf8:	e1a02009 	mov	r2, r9
   10cfc:	e3a0b001 	mov	fp, #1
   10d00:	e58d3004 	str	r3, [sp, #4]
   10d04:	eaffff8d 	b	10b40 <__libc_setup_tls+0xb4>
   10d08:	0008b880 	.word	0x0008b880
   10d0c:	0008abc8 	.word	0x0008abc8
   10d10:	0008b8a0 	.word	0x0008b8a0
   10d14:	0008a090 	.word	0x0008a090
   10d18:	0008b614 	.word	0x0008b614
   10d1c:	000f0005 	.word	0x000f0005
   10d20:	00061990 	.word	0x00061990
   10d24:	0008b610 	.word	0x0008b610
   10d28:	0008b814 	.word	0x0008b814
   10d2c:	0008ae94 	.word	0x0008ae94
   10d30:	0008b608 	.word	0x0008b608
   10d34:	0008b820 	.word	0x0008b820
   10d38:	0008b60c 	.word	0x0008b60c

00010d3c <__tls_get_addr>:
   10d3c:	e1a03000 	mov	r3, r0
   10d40:	e52de004 	push	{lr}		; (str lr, [sp, #-4]!)
   10d44:	eb00003d 	bl	10e40 <__aeabi_read_tp>
   10d48:	e5902000 	ldr	r2, [r0]
   10d4c:	e5933004 	ldr	r3, [r3, #4]
   10d50:	e5920008 	ldr	r0, [r2, #8]
   10d54:	e0800003 	add	r0, r0, r3
   10d58:	e49df004 	pop	{pc}		; (ldr pc, [sp], #4)

00010d5c <__libc_csu_init>:
   10d5c:	e92d47f0 	push	{r4, r5, r6, r7, r8, r9, sl, lr}
   10d60:	e59f9084 	ldr	r9, [pc, #132]	; 10dec <__libc_csu_init+0x90>
   10d64:	e59f5084 	ldr	r5, [pc, #132]	; 10df0 <__libc_csu_init+0x94>
   10d68:	e1a06000 	mov	r6, r0
   10d6c:	e0499005 	sub	r9, r9, r5
   10d70:	e1b09149 	asrs	r9, r9, #2
   10d74:	e1a07001 	mov	r7, r1
   10d78:	e1a08002 	mov	r8, r2
   10d7c:	0a000009 	beq	10da8 <__libc_csu_init+0x4c>
   10d80:	e3a04000 	mov	r4, #0
   10d84:	e2455004 	sub	r5, r5, #4
   10d88:	e1a02008 	mov	r2, r8
   10d8c:	e1a01007 	mov	r1, r7
   10d90:	e1a00006 	mov	r0, r6
   10d94:	e5b53004 	ldr	r3, [r5, #4]!
   10d98:	e2844001 	add	r4, r4, #1
   10d9c:	e12fff33 	blx	r3
   10da0:	e1590004 	cmp	r9, r4
   10da4:	1afffff7 	bne	10d88 <__libc_csu_init+0x2c>
   10da8:	e59f9044 	ldr	r9, [pc, #68]	; 10df4 <__libc_csu_init+0x98>
   10dac:	e59f5044 	ldr	r5, [pc, #68]	; 10df8 <__libc_csu_init+0x9c>
   10db0:	ebfffce8 	bl	10158 <_init>
   10db4:	e0499005 	sub	r9, r9, r5
   10db8:	e1b09149 	asrs	r9, r9, #2
   10dbc:	08bd87f0 	popeq	{r4, r5, r6, r7, r8, r9, sl, pc}
   10dc0:	e3a04000 	mov	r4, #0
   10dc4:	e2455004 	sub	r5, r5, #4
   10dc8:	e1a02008 	mov	r2, r8
   10dcc:	e1a01007 	mov	r1, r7
   10dd0:	e1a00006 	mov	r0, r6
   10dd4:	e5b53004 	ldr	r3, [r5, #4]!
   10dd8:	e2844001 	add	r4, r4, #1
   10ddc:	e12fff33 	blx	r3
   10de0:	e1590004 	cmp	r9, r4
   10de4:	1afffff7 	bne	10dc8 <__libc_csu_init+0x6c>
   10de8:	e8bd87f0 	pop	{r4, r5, r6, r7, r8, r9, sl, pc}
   10dec:	00089b14 	.word	0x00089b14
   10df0:	00089b14 	.word	0x00089b14
   10df4:	00089b18 	.word	0x00089b18
   10df8:	00089b14 	.word	0x00089b14

00010dfc <__libc_csu_fini>:
   10dfc:	e92d4070 	push	{r4, r5, r6, lr}
   10e00:	e59f5030 	ldr	r5, [pc, #48]	; 10e38 <__libc_csu_fini+0x3c>
   10e04:	e59f4030 	ldr	r4, [pc, #48]	; 10e3c <__libc_csu_fini+0x40>
   10e08:	e0454004 	sub	r4, r5, r4
   10e0c:	e1a04144 	asr	r4, r4, #2
   10e10:	e3540000 	cmp	r4, #0
   10e14:	0a000005 	beq	10e30 <__libc_csu_fini+0x34>
   10e18:	e2444001 	sub	r4, r4, #1
   10e1c:	e5353004 	ldr	r3, [r5, #-4]!
   10e20:	e2444001 	sub	r4, r4, #1
   10e24:	e12fff33 	blx	r3
   10e28:	e3740001 	cmn	r4, #1
   10e2c:	1afffffa 	bne	10e1c <__libc_csu_fini+0x20>
   10e30:	e8bd4070 	pop	{r4, r5, r6, lr}
   10e34:	ea014291 	b	61880 <_fini>
   10e38:	00089b20 	.word	0x00089b20
   10e3c:	00089b18 	.word	0x00089b18

00010e40 <__aeabi_read_tp>:
   10e40:	e3e00a0f 	mvn	r0, #61440	; 0xf000
   10e44:	e240f01f 	sub	pc, r0, #31

00010e48 <__assert_fail_base>:
   10e48:	e92d4080 	push	{r7, lr}
   10e4c:	e59fc168 	ldr	ip, [pc, #360]	; 10fbc <__assert_fail_base+0x174>
   10e50:	e1a06003 	mov	r6, r3
   10e54:	e59f3164 	ldr	r3, [pc, #356]	; 10fc0 <__assert_fail_base+0x178>
   10e58:	e24dd028 	sub	sp, sp, #40	; 0x28
   10e5c:	e35c0000 	cmp	ip, #0
   10e60:	e1a04000 	mov	r4, r0
   10e64:	e1a07001 	mov	r7, r1
   10e68:	e1a05002 	mov	r5, r2
   10e6c:	e5933000 	ldr	r3, [r3]
   10e70:	e58d3024 	str	r3, [sp, #36]	; 0x24
   10e74:	e3a03000 	mov	r3, #0
   10e78:	e59d8030 	ldr	r8, [sp, #48]	; 0x30
   10e7c:	0a000002 	beq	10e8c <__assert_fail_base+0x44>
   10e80:	e3a01000 	mov	r1, #0
   10e84:	e3a00001 	mov	r0, #1
   10e88:	e1a00000 	nop			; (mov r0, r0)
   10e8c:	e59f3130 	ldr	r3, [pc, #304]	; 10fc4 <__assert_fail_base+0x17c>
   10e90:	e59fc130 	ldr	ip, [pc, #304]	; 10fc8 <__assert_fail_base+0x180>
   10e94:	e5932000 	ldr	r2, [r3]
   10e98:	e59f112c 	ldr	r1, [pc, #300]	; 10fcc <__assert_fail_base+0x184>
   10e9c:	e5d20000 	ldrb	r0, [r2]
   10ea0:	e58d7010 	str	r7, [sp, #16]
   10ea4:	e3500000 	cmp	r0, #0
   10ea8:	01a03001 	moveq	r3, r1
   10eac:	11a0300c 	movne	r3, ip
   10eb0:	e3580000 	cmp	r8, #0
   10eb4:	01a08001 	moveq	r8, r1
   10eb8:	01a0c008 	moveq	ip, r8
   10ebc:	e28d0020 	add	r0, sp, #32
   10ec0:	e58d0014 	str	r0, [sp, #20]
   10ec4:	e1a01004 	mov	r1, r4
   10ec8:	e88d1160 	stm	sp, {r5, r6, r8, ip}
   10ecc:	e28d001c 	add	r0, sp, #28
   10ed0:	eb00191a 	bl	17340 <___asprintf>
   10ed4:	e3500000 	cmp	r0, #0
   10ed8:	ba000032 	blt	10fa8 <__assert_fail_base+0x160>
   10edc:	e59d201c 	ldr	r2, [sp, #28]
   10ee0:	e59f10e8 	ldr	r1, [pc, #232]	; 10fd0 <__assert_fail_base+0x188>
   10ee4:	e3a00000 	mov	r0, #0
   10ee8:	eb002ead 	bl	1c9a4 <__fxprintf>
   10eec:	e59f30e0 	ldr	r3, [pc, #224]	; 10fd4 <__assert_fail_base+0x18c>
   10ef0:	e5930000 	ldr	r0, [r3]
   10ef4:	eb002ff0 	bl	1cebc <_IO_fflush>
   10ef8:	e3a00000 	mov	r0, #0
   10efc:	e3e02000 	mvn	r2, #0
   10f00:	e59f30d0 	ldr	r3, [pc, #208]	; 10fd8 <__assert_fail_base+0x190>
   10f04:	e59d1020 	ldr	r1, [sp, #32]
   10f08:	e5933000 	ldr	r3, [r3]
   10f0c:	e58d2000 	str	r2, [sp]
   10f10:	e0831001 	add	r1, r3, r1
   10f14:	e2633000 	rsb	r3, r3, #0
   10f18:	e0011003 	and	r1, r1, r3
   10f1c:	e3a02003 	mov	r2, #3
   10f20:	e3a03022 	mov	r3, #34	; 0x22
   10f24:	e58d0004 	str	r0, [sp, #4]
   10f28:	e58d1020 	str	r1, [sp, #32]
   10f2c:	eb007851 	bl	2f078 <__mmap>
   10f30:	e3700001 	cmn	r0, #1
   10f34:	e1a05000 	mov	r5, r0
   10f38:	0a000017 	beq	10f9c <__assert_fail_base+0x154>
   10f3c:	e59d3020 	ldr	r3, [sp, #32]
   10f40:	e59f6094 	ldr	r6, [pc, #148]	; 10fdc <__assert_fail_base+0x194>
   10f44:	e59d101c 	ldr	r1, [sp, #28]
   10f48:	e4803004 	str	r3, [r0], #4
   10f4c:	eb0068b7 	bl	2b230 <strcpy>
   10f50:	e1a02006 	mov	r2, r6
   10f54:	e1a01005 	mov	r1, r5
   10f58:	e5964000 	ldr	r4, [r6]
   10f5c:	e5923000 	ldr	r3, [r2]
   10f60:	e1530004 	cmp	r3, r4
   10f64:	1a000005 	bne	10f80 <__assert_fail_base+0x138>
   10f68:	e1a00004 	mov	r0, r4
   10f6c:	e3e03a0f 	mvn	r3, #61440	; 0xf000
   10f70:	e1a0e00f 	mov	lr, pc
   10f74:	e243f03f 	sub	pc, r3, #63	; 0x3f
   10f78:	3afffff7 	bcc	10f5c <__assert_fail_base+0x114>
   10f7c:	e1a03004 	mov	r3, r4
   10f80:	e1540003 	cmp	r4, r3
   10f84:	1afffff2 	bne	10f54 <__assert_fail_base+0x10c>
   10f88:	e3540000 	cmp	r4, #0
   10f8c:	0a000002 	beq	10f9c <__assert_fail_base+0x154>
   10f90:	e1a00004 	mov	r0, r4
   10f94:	e5941000 	ldr	r1, [r4]
   10f98:	eb007878 	bl	2f180 <__munmap>
   10f9c:	e59d001c 	ldr	r0, [sp, #28]
   10fa0:	eb0062fb 	bl	29b94 <__free>
   10fa4:	ebfffc71 	bl	10170 <abort>
   10fa8:	e3a02012 	mov	r2, #18
   10fac:	e59f102c 	ldr	r1, [pc, #44]	; 10fe0 <__assert_fail_base+0x198>
   10fb0:	e3a00002 	mov	r0, #2
   10fb4:	eb0074aa 	bl	2e264 <__libc_write>
   10fb8:	eafffff9 	b	10fa4 <__assert_fail_base+0x15c>
   10fbc:	00000000 	.word	0x00000000
   10fc0:	000619e4 	.word	0x000619e4
   10fc4:	0008a8f8 	.word	0x0008a8f8
   10fc8:	000619a0 	.word	0x000619a0
   10fcc:	00075750 	.word	0x00075750
   10fd0:	00077bdc 	.word	0x00077bdc
   10fd4:	0008a434 	.word	0x0008a434
   10fd8:	0008a900 	.word	0x0008a900
   10fdc:	0008b150 	.word	0x0008b150
   10fe0:	000619d0 	.word	0x000619d0

00010fe4 <__assert_fail>:
   10fe4:	e92d4080 	push	{r7, lr}
   10fe8:	e1a04000 	mov	r4, r0
   10fec:	e1a07003 	mov	r7, r3
   10ff0:	e1a05001 	mov	r5, r1
   10ff4:	e1a06002 	mov	r6, r2
   10ff8:	e59f1020 	ldr	r1, [pc, #32]	; 11020 <__assert_fail+0x3c>
   10ffc:	e3a02005 	mov	r2, #5
   11000:	e24dd008 	sub	sp, sp, #8
   11004:	e59f0018 	ldr	r0, [pc, #24]	; 11024 <__assert_fail+0x40>
   11008:	eb000006 	bl	11028 <__dcgettext>
   1100c:	e1a03006 	mov	r3, r6
   11010:	e1a02005 	mov	r2, r5
   11014:	e1a01004 	mov	r1, r4
   11018:	e58d7000 	str	r7, [sp]
   1101c:	ebffff89 	bl	10e48 <__assert_fail_base>
   11020:	000619a4 	.word	0x000619a4
   11024:	0007368c 	.word	0x0007368c

00011028 <__dcgettext>:
   11028:	e3a03000 	mov	r3, #0
   1102c:	e52de004 	push	{lr}		; (str lr, [sp, #-4]!)
   11030:	e24dd00c 	sub	sp, sp, #12
   11034:	e58d2004 	str	r2, [sp, #4]
   11038:	e58d3000 	str	r3, [sp]
   1103c:	e1a02003 	mov	r2, r3
   11040:	eb00038a 	bl	11e70 <__dcigettext>
   11044:	e28dd00c 	add	sp, sp, #12
   11048:	e49df004 	pop	{pc}		; (ldr pc, [sp], #4)

0001104c <plural_eval>:
   1104c:	e92d41f0 	push	{r4, r5, r6, r7, r8, lr}
   11050:	e1a04000 	mov	r4, r0
   11054:	e1a05001 	mov	r5, r1
   11058:	e5943000 	ldr	r3, [r4]
   1105c:	e3530003 	cmp	r3, #3
   11060:	979ff103 	ldrls	pc, [pc, r3, lsl #2]
   11064:	ea000033 	b	11138 <plural_eval+0xec>
   11068:	00011120 	.word	0x00011120
   1106c:	00011104 	.word	0x00011104
   11070:	00011098 	.word	0x00011098
   11074:	00011078 	.word	0x00011078
   11078:	e5940008 	ldr	r0, [r4, #8]
   1107c:	e1a01005 	mov	r1, r5
   11080:	ebfffff1 	bl	1104c <plural_eval>
   11084:	e3500000 	cmp	r0, #0
   11088:	13a03003 	movne	r3, #3
   1108c:	03a03004 	moveq	r3, #4
   11090:	e7944103 	ldr	r4, [r4, r3, lsl #2]
   11094:	eaffffef 	b	11058 <plural_eval+0xc>
   11098:	e1a01005 	mov	r1, r5
   1109c:	e5940008 	ldr	r0, [r4, #8]
   110a0:	ebffffe9 	bl	1104c <plural_eval>
   110a4:	e5947004 	ldr	r7, [r4, #4]
   110a8:	e1a06000 	mov	r6, r0
   110ac:	e357000f 	cmp	r7, #15
   110b0:	0a000025 	beq	1114c <plural_eval+0x100>
   110b4:	e357000e 	cmp	r7, #14
   110b8:	0a00002c 	beq	11170 <plural_eval+0x124>
   110bc:	e1a01005 	mov	r1, r5
   110c0:	e594000c 	ldr	r0, [r4, #12]
   110c4:	e2477003 	sub	r7, r7, #3
   110c8:	ebffffdf 	bl	1104c <plural_eval>
   110cc:	e357000a 	cmp	r7, #10
   110d0:	979ff107 	ldrls	pc, [pc, r7, lsl #2]
   110d4:	ea000017 	b	11138 <plural_eval+0xec>
   110d8:	00011210 	.word	0x00011210
   110dc:	000111fc 	.word	0x000111fc
   110e0:	000111e8 	.word	0x000111e8
   110e4:	000111e0 	.word	0x000111e0
   110e8:	000111d8 	.word	0x000111d8
   110ec:	000111c8 	.word	0x000111c8
   110f0:	000111b8 	.word	0x000111b8
   110f4:	000111a8 	.word	0x000111a8
   110f8:	00011198 	.word	0x00011198
   110fc:	00011188 	.word	0x00011188
   11100:	0001117c 	.word	0x0001117c
   11104:	e1a01005 	mov	r1, r5
   11108:	e5940008 	ldr	r0, [r4, #8]
   1110c:	ebffffce 	bl	1104c <plural_eval>
   11110:	e16f6f10 	clz	r6, r0
   11114:	e1a062a6 	lsr	r6, r6, #5
   11118:	e1a00006 	mov	r0, r6
   1111c:	e8bd81f0 	pop	{r4, r5, r6, r7, r8, pc}
   11120:	e5943004 	ldr	r3, [r4, #4]
   11124:	e3530000 	cmp	r3, #0
   11128:	01a06005 	moveq	r6, r5
   1112c:	0afffff9 	beq	11118 <plural_eval+0xcc>
   11130:	e3530001 	cmp	r3, #1
   11134:	0a000002 	beq	11144 <plural_eval+0xf8>
   11138:	e3a06000 	mov	r6, #0
   1113c:	e1a00006 	mov	r0, r6
   11140:	e8bd81f0 	pop	{r4, r5, r6, r7, r8, pc}
   11144:	e5946008 	ldr	r6, [r4, #8]
   11148:	eafffff2 	b	11118 <plural_eval+0xcc>
   1114c:	e3500000 	cmp	r0, #0
   11150:	13a06001 	movne	r6, #1
   11154:	1affffef 	bne	11118 <plural_eval+0xcc>
   11158:	e1a01005 	mov	r1, r5
   1115c:	e594000c 	ldr	r0, [r4, #12]
   11160:	ebffffb9 	bl	1104c <plural_eval>
   11164:	e2506000 	subs	r6, r0, #0
   11168:	13a06001 	movne	r6, #1
   1116c:	eaffffe9 	b	11118 <plural_eval+0xcc>
   11170:	e3500000 	cmp	r0, #0
   11174:	0affffe7 	beq	11118 <plural_eval+0xcc>
   11178:	eafffff6 	b	11158 <plural_eval+0x10c>
   1117c:	e0566000 	subs	r6, r6, r0
   11180:	13a06001 	movne	r6, #1
   11184:	eaffffe3 	b	11118 <plural_eval+0xcc>
   11188:	e0466000 	sub	r6, r6, r0
   1118c:	e16f6f16 	clz	r6, r6
   11190:	e1a062a6 	lsr	r6, r6, #5
   11194:	eaffffdf 	b	11118 <plural_eval+0xcc>
   11198:	e1560000 	cmp	r6, r0
   1119c:	33a06000 	movcc	r6, #0
   111a0:	23a06001 	movcs	r6, #1
   111a4:	eaffffdb 	b	11118 <plural_eval+0xcc>
   111a8:	e1560000 	cmp	r6, r0
   111ac:	83a06000 	movhi	r6, #0
   111b0:	93a06001 	movls	r6, #1
   111b4:	eaffffd7 	b	11118 <plural_eval+0xcc>
   111b8:	e1560000 	cmp	r6, r0
   111bc:	93a06000 	movls	r6, #0
   111c0:	83a06001 	movhi	r6, #1
   111c4:	eaffffd3 	b	11118 <plural_eval+0xcc>
   111c8:	e1560000 	cmp	r6, r0
   111cc:	23a06000 	movcs	r6, #0
   111d0:	33a06001 	movcc	r6, #1
   111d4:	eaffffcf 	b	11118 <plural_eval+0xcc>
   111d8:	e0466000 	sub	r6, r6, r0
   111dc:	eaffffcd 	b	11118 <plural_eval+0xcc>
   111e0:	e0866000 	add	r6, r6, r0
   111e4:	eaffffcb 	b	11118 <plural_eval+0xcc>
   111e8:	e1a01000 	mov	r1, r0
   111ec:	e1a00006 	mov	r0, r6
   111f0:	eb0136b2 	bl	5ecc0 <__aeabi_uidivmod>
   111f4:	e1a06001 	mov	r6, r1
   111f8:	eaffffc6 	b	11118 <plural_eval+0xcc>
   111fc:	e1a01000 	mov	r1, r0
   11200:	e1a00006 	mov	r0, r6
   11204:	eb013632 	bl	5ead4 <__udivsi3>
   11208:	e1a06000 	mov	r6, r0
   1120c:	eaffffc1 	b	11118 <plural_eval+0xcc>
   11210:	e0060690 	mul	r6, r0, r6
   11214:	eaffffbf 	b	11118 <plural_eval+0xcc>

00011218 <transcmp>:
   11218:	e92d4070 	push	{r4, r5, r6, lr}
   1121c:	e1a05000 	mov	r5, r0
   11220:	e1a04001 	mov	r4, r1
   11224:	e5903010 	ldr	r3, [r0, #16]
   11228:	e3530000 	cmp	r3, #0
   1122c:	e5913010 	ldr	r3, [r1, #16]
   11230:	0595001c 	ldreq	r0, [r5, #28]
   11234:	1280001c 	addne	r0, r0, #28
   11238:	e3530000 	cmp	r3, #0
   1123c:	0594101c 	ldreq	r1, [r4, #28]
   11240:	1281101c 	addne	r1, r1, #28
   11244:	eb0067ef 	bl	2b208 <strcmp>
   11248:	e3500000 	cmp	r0, #0
   1124c:	18bd8070 	popne	{r4, r5, r6, pc}
   11250:	e5941000 	ldr	r1, [r4]
   11254:	e5950000 	ldr	r0, [r5]
   11258:	eb0067ea 	bl	2b208 <strcmp>
   1125c:	e3500000 	cmp	r0, #0
   11260:	18bd8070 	popne	{r4, r5, r6, pc}
   11264:	e5941008 	ldr	r1, [r4, #8]
   11268:	e5950008 	ldr	r0, [r5, #8]
   1126c:	eb0067e5 	bl	2b208 <strcmp>
   11270:	e3500000 	cmp	r0, #0
   11274:	05943004 	ldreq	r3, [r4, #4]
   11278:	05950004 	ldreq	r0, [r5, #4]
   1127c:	00400003 	subeq	r0, r0, r3
   11280:	e8bd8070 	pop	{r4, r5, r6, pc}

00011284 <plural_lookup.isra.0>:
   11284:	e92d41f0 	push	{r4, r5, r6, r7, r8, lr}
   11288:	e1a07000 	mov	r7, r0
   1128c:	e5900060 	ldr	r0, [r0, #96]	; 0x60
   11290:	e1a05003 	mov	r5, r3
   11294:	e1a06002 	mov	r6, r2
   11298:	ebffff6b 	bl	1104c <plural_eval>
   1129c:	e5973064 	ldr	r3, [r7, #100]	; 0x64
   112a0:	e1500003 	cmp	r0, r3
   112a4:	2a000009 	bcs	112d0 <plural_lookup.isra.0+0x4c>
   112a8:	e1a04000 	mov	r4, r0
   112ac:	e1a00006 	mov	r0, r6
   112b0:	e0865005 	add	r5, r6, r5
   112b4:	e2544001 	subs	r4, r4, #1
   112b8:	3a000006 	bcc	112d8 <plural_lookup.isra.0+0x54>
   112bc:	e3a01000 	mov	r1, #0
   112c0:	eb006db5 	bl	2c99c <__rawmemchr>
   112c4:	e2800001 	add	r0, r0, #1
   112c8:	e1500005 	cmp	r0, r5
   112cc:	3afffff8 	bcc	112b4 <plural_lookup.isra.0+0x30>
   112d0:	e1a00006 	mov	r0, r6
   112d4:	e8bd81f0 	pop	{r4, r5, r6, r7, r8, pc}
   112d8:	e1a06000 	mov	r6, r0
   112dc:	eafffffb 	b	112d0 <plural_lookup.isra.0+0x4c>

000112e0 <_nl_find_msg>:
   112e0:	e92d4ff0 	push	{r4, r5, r6, r7, r8, r9, sl, fp, lr}
   112e4:	e28db020 	add	fp, sp, #32
   112e8:	e24dd04c 	sub	sp, sp, #76	; 0x4c
   112ec:	e50b3058 	str	r3, [fp, #-88]	; 0xffffffa8
   112f0:	e59f3b40 	ldr	r3, [pc, #2880]	; 11e38 <_nl_find_msg+0xb58>
   112f4:	e590c004 	ldr	ip, [r0, #4]
   112f8:	e50b0054 	str	r0, [fp, #-84]	; 0xffffffac
   112fc:	e5933000 	ldr	r3, [r3]
   11300:	e50b3028 	str	r3, [fp, #-40]	; 0xffffffd8
   11304:	e3a03000 	mov	r3, #0
   11308:	e59b3004 	ldr	r3, [fp, #4]
   1130c:	e35c0000 	cmp	ip, #0
   11310:	e1a09002 	mov	r9, r2
   11314:	e50b1060 	str	r1, [fp, #-96]	; 0xffffffa0
   11318:	e50b305c 	str	r3, [fp, #-92]	; 0xffffffa4
   1131c:	da000097 	ble	11580 <_nl_find_msg+0x2a0>
   11320:	e51b3054 	ldr	r3, [fp, #-84]	; 0xffffffac
   11324:	e5936008 	ldr	r6, [r3, #8]
   11328:	e3560000 	cmp	r6, #0
   1132c:	0a000081 	beq	11538 <_nl_find_msg+0x258>
   11330:	e5964030 	ldr	r4, [r6, #48]	; 0x30
   11334:	e5963014 	ldr	r3, [r6, #20]
   11338:	e3540000 	cmp	r4, #0
   1133c:	e50b3038 	str	r3, [fp, #-56]	; 0xffffffc8
   11340:	0a000062 	beq	114d0 <_nl_find_msg+0x1f0>
   11344:	e1a00009 	mov	r0, r9
   11348:	eb006890 	bl	2b590 <strlen>
   1134c:	e1a03000 	mov	r3, r0
   11350:	e1a00009 	mov	r0, r9
   11354:	e50b3040 	str	r3, [fp, #-64]	; 0xffffffc0
   11358:	eb001150 	bl	158a0 <__hash_string>
   1135c:	e596a02c 	ldr	sl, [r6, #44]	; 0x2c
   11360:	e1a07000 	mov	r7, r0
   11364:	e1a0100a 	mov	r1, sl
   11368:	eb013654 	bl	5ecc0 <__aeabi_uidivmod>
   1136c:	e1a00007 	mov	r0, r7
   11370:	e1a04001 	mov	r4, r1
   11374:	e24a1002 	sub	r1, sl, #2
   11378:	eb013650 	bl	5ecc0 <__aeabi_uidivmod>
   1137c:	e5962034 	ldr	r2, [r6, #52]	; 0x34
   11380:	e2811001 	add	r1, r1, #1
   11384:	e5963030 	ldr	r3, [r6, #48]	; 0x30
   11388:	e04a0001 	sub	r0, sl, r1
   1138c:	e041a00a 	sub	sl, r1, sl
   11390:	e1a08002 	mov	r8, r2
   11394:	e1a07003 	mov	r7, r3
   11398:	e1a0200a 	mov	r2, sl
   1139c:	e50b1048 	str	r1, [fp, #-72]	; 0xffffffb8
   113a0:	e1a0a009 	mov	sl, r9
   113a4:	e50b0044 	str	r0, [fp, #-68]	; 0xffffffbc
   113a8:	ea000022 	b	11438 <_nl_find_msg+0x158>
   113ac:	e5963018 	ldr	r3, [r6, #24]
   113b0:	e596900c 	ldr	r9, [r6, #12]
   113b4:	e7931185 	ldr	r1, [r3, r5, lsl #3]
   113b8:	e0830185 	add	r0, r3, r5, lsl #3
   113bc:	e3590000 	cmp	r9, #0
   113c0:	e1a03185 	lsl	r3, r5, #3
   113c4:	e50b303c 	str	r3, [fp, #-60]	; 0xffffffc4
   113c8:	0a000066 	beq	11568 <_nl_find_msg+0x288>
   113cc:	e0213861 	eor	r3, r1, r1, ror #16
   113d0:	e1a03423 	lsr	r3, r3, #8
   113d4:	e3c33cff 	bic	r3, r3, #65280	; 0xff00
   113d8:	e0233461 	eor	r3, r3, r1, ror #8
   113dc:	e51b1040 	ldr	r1, [fp, #-64]	; 0xffffffc0
   113e0:	e1510003 	cmp	r1, r3
   113e4:	8a00000e 	bhi	11424 <_nl_find_msg+0x144>
   113e8:	e5900004 	ldr	r0, [r0, #4]
   113ec:	e5963000 	ldr	r3, [r6]
   113f0:	e0201860 	eor	r1, r0, r0, ror #16
   113f4:	e1a01421 	lsr	r1, r1, #8
   113f8:	e3c11cff 	bic	r1, r1, #65280	; 0xff00
   113fc:	e0211460 	eor	r1, r1, r0, ror #8
   11400:	e0831001 	add	r1, r3, r1
   11404:	e1a0000a 	mov	r0, sl
   11408:	e50b2050 	str	r2, [fp, #-80]	; 0xffffffb0
   1140c:	e50b304c 	str	r3, [fp, #-76]	; 0xffffffb4
   11410:	eb00677c 	bl	2b208 <strcmp>
   11414:	e3500000 	cmp	r0, #0
   11418:	e51b304c 	ldr	r3, [fp, #-76]	; 0xffffffb4
   1141c:	e51b2050 	ldr	r2, [fp, #-80]	; 0xffffffb0
   11420:	0a000058 	beq	11588 <_nl_find_msg+0x2a8>
   11424:	e51b3044 	ldr	r3, [fp, #-68]	; 0xffffffbc
   11428:	e1530004 	cmp	r3, r4
   1142c:	851b3048 	ldrhi	r3, [fp, #-72]	; 0xffffffb8
   11430:	90844002 	addls	r4, r4, r2
   11434:	80844003 	addhi	r4, r4, r3
   11438:	e7975104 	ldr	r5, [r7, r4, lsl #2]
   1143c:	e3580000 	cmp	r8, #0
   11440:	10253865 	eorne	r3, r5, r5, ror #16
   11444:	11a03423 	lsrne	r3, r3, #8
   11448:	13c33cff 	bicne	r3, r3, #65280	; 0xff00
   1144c:	10235465 	eorne	r5, r3, r5, ror #8
   11450:	e3550000 	cmp	r5, #0
   11454:	0a000037 	beq	11538 <_nl_find_msg+0x258>
   11458:	e51b3038 	ldr	r3, [fp, #-56]	; 0xffffffc8
   1145c:	e2455001 	sub	r5, r5, #1
   11460:	e1530005 	cmp	r3, r5
   11464:	8affffd0 	bhi	113ac <_nl_find_msg+0xcc>
   11468:	e51b1038 	ldr	r1, [fp, #-56]	; 0xffffffc8
   1146c:	e5963024 	ldr	r3, [r6, #36]	; 0x24
   11470:	e0459001 	sub	r9, r5, r1
   11474:	e7931189 	ldr	r1, [r3, r9, lsl #3]
   11478:	e51b0040 	ldr	r0, [fp, #-64]	; 0xffffffc0
   1147c:	e0833189 	add	r3, r3, r9, lsl #3
   11480:	e1510000 	cmp	r1, r0
   11484:	9affffe6 	bls	11424 <_nl_find_msg+0x144>
   11488:	e1a0000a 	mov	r0, sl
   1148c:	e5931004 	ldr	r1, [r3, #4]
   11490:	e50b203c 	str	r2, [fp, #-60]	; 0xffffffc4
   11494:	eb00675b 	bl	2b208 <strcmp>
   11498:	e3500000 	cmp	r0, #0
   1149c:	e51b203c 	ldr	r2, [fp, #-60]	; 0xffffffc4
   114a0:	1affffdf 	bne	11424 <_nl_find_msg+0x144>
   114a4:	e1a07009 	mov	r7, r9
   114a8:	e5963028 	ldr	r3, [r6, #40]	; 0x28
   114ac:	e0832187 	add	r2, r3, r7, lsl #3
   114b0:	e5928004 	ldr	r8, [r2, #4]
   114b4:	e7939187 	ldr	r9, [r3, r7, lsl #3]
   114b8:	e51b3058 	ldr	r3, [fp, #-88]	; 0xffffffa8
   114bc:	e3530000 	cmp	r3, #0
   114c0:	1a000046 	bne	115e0 <_nl_find_msg+0x300>
   114c4:	e51b305c 	ldr	r3, [fp, #-92]	; 0xffffffa4
   114c8:	e5839000 	str	r9, [r3]
   114cc:	ea00001a 	b	1153c <_nl_find_msg+0x25c>
   114d0:	e51ba038 	ldr	sl, [fp, #-56]	; 0xffffffc8
   114d4:	e15a0004 	cmp	sl, r4
   114d8:	9a000016 	bls	11538 <_nl_find_msg+0x258>
   114dc:	e5963018 	ldr	r3, [r6, #24]
   114e0:	e08a5004 	add	r5, sl, r4
   114e4:	e1a050a5 	lsr	r5, r5, #1
   114e8:	e0833185 	add	r3, r3, r5, lsl #3
   114ec:	e596700c 	ldr	r7, [r6, #12]
   114f0:	e5931004 	ldr	r1, [r3, #4]
   114f4:	e3570000 	cmp	r7, #0
   114f8:	10212861 	eorne	r2, r1, r1, ror #16
   114fc:	11a02422 	lsrne	r2, r2, #8
   11500:	13c22cff 	bicne	r2, r2, #65280	; 0xff00
   11504:	e5968000 	ldr	r8, [r6]
   11508:	10221461 	eorne	r1, r2, r1, ror #8
   1150c:	e1a03185 	lsl	r3, r5, #3
   11510:	e1a00009 	mov	r0, r9
   11514:	e0881001 	add	r1, r8, r1
   11518:	e50b303c 	str	r3, [fp, #-60]	; 0xffffffc4
   1151c:	eb006739 	bl	2b208 <strcmp>
   11520:	e3500000 	cmp	r0, #0
   11524:	ba00000d 	blt	11560 <_nl_find_msg+0x280>
   11528:	0a000102 	beq	11938 <_nl_find_msg+0x658>
   1152c:	e2854001 	add	r4, r5, #1
   11530:	e15a0004 	cmp	sl, r4
   11534:	8affffe8 	bhi	114dc <_nl_find_msg+0x1fc>
   11538:	e3a08000 	mov	r8, #0
   1153c:	e59f38f4 	ldr	r3, [pc, #2292]	; 11e38 <_nl_find_msg+0xb58>
   11540:	e5932000 	ldr	r2, [r3]
   11544:	e51b3028 	ldr	r3, [fp, #-40]	; 0xffffffd8
   11548:	e0332002 	eors	r2, r3, r2
   1154c:	e3a03000 	mov	r3, #0
   11550:	1a00021b 	bne	11dc4 <_nl_find_msg+0xae4>
   11554:	e1a00008 	mov	r0, r8
   11558:	e24bd020 	sub	sp, fp, #32
   1155c:	e8bd8ff0 	pop	{r4, r5, r6, r7, r8, r9, sl, fp, pc}
   11560:	e1a0a005 	mov	sl, r5
   11564:	eaffffda 	b	114d4 <_nl_find_msg+0x1f4>
   11568:	e51b3040 	ldr	r3, [fp, #-64]	; 0xffffffc0
   1156c:	e1530001 	cmp	r3, r1
   11570:	8affffab 	bhi	11424 <_nl_find_msg+0x144>
   11574:	e5901004 	ldr	r1, [r0, #4]
   11578:	e5963000 	ldr	r3, [r6]
   1157c:	eaffff9f 	b	11400 <_nl_find_msg+0x120>
   11580:	eb0004c3 	bl	12894 <_nl_load_domain>
   11584:	eaffff65 	b	11320 <_nl_find_msg+0x40>
   11588:	e1a08003 	mov	r8, r3
   1158c:	e1a07009 	mov	r7, r9
   11590:	e596301c 	ldr	r3, [r6, #28]
   11594:	e51b203c 	ldr	r2, [fp, #-60]	; 0xffffffc4
   11598:	e7931185 	ldr	r1, [r3, r5, lsl #3]
   1159c:	e083a002 	add	sl, r3, r2
   115a0:	e59a0004 	ldr	r0, [sl, #4]
   115a4:	e3570000 	cmp	r7, #0
   115a8:	00888000 	addeq	r8, r8, r0
   115ac:	02819001 	addeq	r9, r1, #1
   115b0:	0affffc0 	beq	114b8 <_nl_find_msg+0x1d8>
   115b4:	e0202860 	eor	r2, r0, r0, ror #16
   115b8:	e0213861 	eor	r3, r1, r1, ror #16
   115bc:	e1a02422 	lsr	r2, r2, #8
   115c0:	e1a03423 	lsr	r3, r3, #8
   115c4:	e3c22cff 	bic	r2, r2, #65280	; 0xff00
   115c8:	e3c33cff 	bic	r3, r3, #65280	; 0xff00
   115cc:	e0222460 	eor	r2, r2, r0, ror #8
   115d0:	e0233461 	eor	r3, r3, r1, ror #8
   115d4:	e0888002 	add	r8, r8, r2
   115d8:	e2839001 	add	r9, r3, #1
   115dc:	eaffffb5 	b	114b8 <_nl_find_msg+0x1d8>
   115e0:	e51b3060 	ldr	r3, [fp, #-96]	; 0xffffffa0
   115e4:	e3530000 	cmp	r3, #0
   115e8:	0a0000c4 	beq	11900 <_nl_find_msg+0x620>
   115ec:	e5934008 	ldr	r4, [r3, #8]
   115f0:	e3540000 	cmp	r4, #0
   115f4:	0a0000c1 	beq	11900 <_nl_find_msg+0x620>
   115f8:	e59f383c 	ldr	r3, [pc, #2108]	; 11e3c <_nl_find_msg+0xb5c>
   115fc:	e3530000 	cmp	r3, #0
   11600:	0a000001 	beq	1160c <_nl_find_msg+0x32c>
   11604:	e2860040 	add	r0, r6, #64	; 0x40
   11608:	e1a00000 	nop			; (mov r0, r0)
   1160c:	e596703c 	ldr	r7, [r6, #60]	; 0x3c
   11610:	ea000008 	b	11638 <_nl_find_msg+0x358>
   11614:	e5963038 	ldr	r3, [r6, #56]	; 0x38
   11618:	e2477001 	sub	r7, r7, #1
   1161c:	e087a087 	add	sl, r7, r7, lsl #1
   11620:	e793010a 	ldr	r0, [r3, sl, lsl #2]
   11624:	e1a01004 	mov	r1, r4
   11628:	e083a10a 	add	sl, r3, sl, lsl #2
   1162c:	eb0066f5 	bl	2b208 <strcmp>
   11630:	e3500000 	cmp	r0, #0
   11634:	0a00009e 	beq	118b4 <_nl_find_msg+0x5d4>
   11638:	e3570000 	cmp	r7, #0
   1163c:	1afffff4 	bne	11614 <_nl_find_msg+0x334>
   11640:	e59f37f8 	ldr	r3, [pc, #2040]	; 11e40 <_nl_find_msg+0xb60>
   11644:	e3530000 	cmp	r3, #0
   11648:	0a000001 	beq	11654 <_nl_find_msg+0x374>
   1164c:	e2860040 	add	r0, r6, #64	; 0x40
   11650:	e1a00000 	nop			; (mov r0, r0)
   11654:	e59f37e8 	ldr	r3, [pc, #2024]	; 11e44 <_nl_find_msg+0xb64>
   11658:	e3530000 	cmp	r3, #0
   1165c:	0a000001 	beq	11668 <_nl_find_msg+0x388>
   11660:	e2860040 	add	r0, r6, #64	; 0x40
   11664:	e1a00000 	nop			; (mov r0, r0)
   11668:	e596703c 	ldr	r7, [r6, #60]	; 0x3c
   1166c:	e5962038 	ldr	r2, [r6, #56]	; 0x38
   11670:	e0873087 	add	r3, r7, r7, lsl #1
   11674:	e1a01103 	lsl	r1, r3, #2
   11678:	e50b2040 	str	r2, [fp, #-64]	; 0xffffffc0
   1167c:	e50b103c 	str	r1, [fp, #-60]	; 0xffffffc4
   11680:	e0823103 	add	r3, r2, r3, lsl #2
   11684:	ea000007 	b	116a8 <_nl_find_msg+0x3c8>
   11688:	e513000c 	ldr	r0, [r3, #-12]
   1168c:	e1a01004 	mov	r1, r4
   11690:	e243a00c 	sub	sl, r3, #12
   11694:	eb0066db 	bl	2b208 <strcmp>
   11698:	e3500000 	cmp	r0, #0
   1169c:	e1a0300a 	mov	r3, sl
   116a0:	e2477001 	sub	r7, r7, #1
   116a4:	0a000082 	beq	118b4 <_nl_find_msg+0x5d4>
   116a8:	e3570000 	cmp	r7, #0
   116ac:	1afffff5 	bne	11688 <_nl_find_msg+0x3a8>
   116b0:	e51b0040 	ldr	r0, [fp, #-64]	; 0xffffffc0
   116b4:	e51b303c 	ldr	r3, [fp, #-60]	; 0xffffffc4
   116b8:	e3500000 	cmp	r0, #0
   116bc:	e283100c 	add	r1, r3, #12
   116c0:	0a000147 	beq	11be4 <_nl_find_msg+0x904>
   116c4:	eb0061d1 	bl	29e10 <__libc_realloc>
   116c8:	e1a03000 	mov	r3, r0
   116cc:	e3530000 	cmp	r3, #0
   116d0:	0a000147 	beq	11bf4 <_nl_find_msg+0x914>
   116d4:	e1a00004 	mov	r0, r4
   116d8:	e5863038 	str	r3, [r6, #56]	; 0x38
   116dc:	e50b3044 	str	r3, [fp, #-68]	; 0xffffffbc
   116e0:	eb006739 	bl	2b3cc <__strdup>
   116e4:	e2502000 	subs	r2, r0, #0
   116e8:	e50b2040 	str	r2, [fp, #-64]	; 0xffffffc0
   116ec:	0a000140 	beq	11bf4 <_nl_find_msg+0x914>
   116f0:	e3e0c000 	mvn	ip, #0
   116f4:	e51b103c 	ldr	r1, [fp, #-60]	; 0xffffffc4
   116f8:	e51b3044 	ldr	r3, [fp, #-68]	; 0xffffffbc
   116fc:	e51b0054 	ldr	r0, [fp, #-84]	; 0xffffffac
   11700:	e7832001 	str	r2, [r3, r1]
   11704:	e083a001 	add	sl, r3, r1
   11708:	e24b202c 	sub	r2, fp, #44	; 0x2c
   1170c:	e3a03000 	mov	r3, #0
   11710:	e58ac004 	str	ip, [sl, #4]
   11714:	e51b1060 	ldr	r1, [fp, #-96]	; 0xffffffa0
   11718:	e58d2000 	str	r2, [sp]
   1171c:	e59f2724 	ldr	r2, [pc, #1828]	; 11e48 <_nl_find_msg+0xb68>
   11720:	ebfffeee 	bl	112e0 <_nl_find_msg>
   11724:	e3700001 	cmn	r0, #1
   11728:	e1a03000 	mov	r3, r0
   1172c:	0a000170 	beq	11cf4 <_nl_find_msg+0xa14>
   11730:	e3500000 	cmp	r0, #0
   11734:	0a000059 	beq	118a0 <_nl_find_msg+0x5c0>
   11738:	e59f170c 	ldr	r1, [pc, #1804]	; 11e4c <_nl_find_msg+0xb6c>
   1173c:	eb00695b 	bl	2bcb0 <strstr>
   11740:	e3500000 	cmp	r0, #0
   11744:	0a000055 	beq	118a0 <_nl_find_msg+0x5c0>
   11748:	e2804008 	add	r4, r0, #8
   1174c:	e1a00004 	mov	r0, r4
   11750:	e59f16f8 	ldr	r1, [pc, #1784]	; 11e50 <_nl_find_msg+0xb70>
   11754:	eb0066c0 	bl	2b25c <strcspn>
   11758:	e2803008 	add	r3, r0, #8
   1175c:	e3c33007 	bic	r3, r3, #7
   11760:	e04dd003 	sub	sp, sp, r3
   11764:	e28d3008 	add	r3, sp, #8
   11768:	e1a02000 	mov	r2, r0
   1176c:	e1a01004 	mov	r1, r4
   11770:	e1a00003 	mov	r0, r3
   11774:	e50b3044 	str	r3, [fp, #-68]	; 0xffffffbc
   11778:	eb006bbf 	bl	2c67c <__mempcpy>
   1177c:	e3a04000 	mov	r4, #0
   11780:	e1a03000 	mov	r3, r0
   11784:	e51b0040 	ldr	r0, [fp, #-64]	; 0xffffffc0
   11788:	e5c34000 	strb	r4, [r3]
   1178c:	e5d02000 	ldrb	r2, [r0]
   11790:	e1520004 	cmp	r2, r4
   11794:	0a000199 	beq	11e00 <_nl_find_msg+0xb20>
   11798:	e1a01002 	mov	r1, r2
   1179c:	e2803001 	add	r3, r0, #1
   117a0:	e351002f 	cmp	r1, #47	; 0x2f
   117a4:	e1a00003 	mov	r0, r3
   117a8:	e4d31001 	ldrb	r1, [r3], #1
   117ac:	02844001 	addeq	r4, r4, #1
   117b0:	e3510000 	cmp	r1, #0
   117b4:	1afffff9 	bne	117a0 <_nl_find_msg+0x4c0>
   117b8:	e51be040 	ldr	lr, [fp, #-64]	; 0xffffffc0
   117bc:	e59f1690 	ldr	r1, [pc, #1680]	; 11e54 <_nl_find_msg+0xb74>
   117c0:	e040300e 	sub	r3, r0, lr
   117c4:	e591c03c 	ldr	ip, [r1, #60]	; 0x3c
   117c8:	e1a0100e 	mov	r1, lr
   117cc:	e2833012 	add	r3, r3, #18
   117d0:	e3c33007 	bic	r3, r3, #7
   117d4:	e04dd003 	sub	sp, sp, r3
   117d8:	e28d3008 	add	r3, sp, #8
   117dc:	e50b303c 	str	r3, [fp, #-60]	; 0xffffffc4
   117e0:	e79c0102 	ldr	r0, [ip, r2, lsl #2]
   117e4:	e5f12001 	ldrb	r2, [r1, #1]!
   117e8:	e1a0e003 	mov	lr, r3
   117ec:	e3520000 	cmp	r2, #0
   117f0:	e4c30001 	strb	r0, [r3], #1
   117f4:	1afffff9 	bne	117e0 <_nl_find_msg+0x500>
   117f8:	e3540001 	cmp	r4, #1
   117fc:	9a000141 	bls	11d08 <_nl_find_msg+0xa28>
   11800:	e3a01000 	mov	r1, #0
   11804:	e51b0044 	ldr	r0, [fp, #-68]	; 0xffffffbc
   11808:	e5c31000 	strb	r1, [r3]
   1180c:	e5d02000 	ldrb	r2, [r0]
   11810:	e1520001 	cmp	r2, r1
   11814:	0a00017f 	beq	11e18 <_nl_find_msg+0xb38>
   11818:	e1a01002 	mov	r1, r2
   1181c:	e2803001 	add	r3, r0, #1
   11820:	e351002f 	cmp	r1, #47	; 0x2f
   11824:	e1a00003 	mov	r0, r3
   11828:	e4d31001 	ldrb	r1, [r3], #1
   1182c:	02877001 	addeq	r7, r7, #1
   11830:	e3510000 	cmp	r1, #0
   11834:	1afffff9 	bne	11820 <_nl_find_msg+0x540>
   11838:	e51b1044 	ldr	r1, [fp, #-68]	; 0xffffffbc
   1183c:	e0403001 	sub	r3, r0, r1
   11840:	e283300a 	add	r3, r3, #10
   11844:	e3c33007 	bic	r3, r3, #7
   11848:	e04dd003 	sub	sp, sp, r3
   1184c:	e28d4008 	add	r4, sp, #8
   11850:	e1a03004 	mov	r3, r4
   11854:	e59f05f8 	ldr	r0, [pc, #1528]	; 11e54 <_nl_find_msg+0xb74>
   11858:	e590c03c 	ldr	ip, [r0, #60]	; 0x3c
   1185c:	e79c0102 	ldr	r0, [ip, r2, lsl #2]
   11860:	e5f12001 	ldrb	r2, [r1, #1]!
   11864:	e1a0e003 	mov	lr, r3
   11868:	e3520000 	cmp	r2, #0
   1186c:	e4c30001 	strb	r0, [r3], #1
   11870:	1afffff9 	bne	1185c <_nl_find_msg+0x57c>
   11874:	e3570001 	cmp	r7, #1
   11878:	9a00012f 	bls	11d3c <_nl_find_msg+0xa5c>
   1187c:	e3a02000 	mov	r2, #0
   11880:	e1a01004 	mov	r1, r4
   11884:	e5c32000 	strb	r2, [r3]
   11888:	e51b003c 	ldr	r0, [fp, #-60]	; 0xffffffc4
   1188c:	e3a03001 	mov	r3, #1
   11890:	e28a2004 	add	r2, sl, #4
   11894:	eb0081da 	bl	32004 <__gconv_open>
   11898:	e2503000 	subs	r3, r0, #0
   1189c:	1a00013d 	bne	11d98 <_nl_find_msg+0xab8>
   118a0:	e3a02000 	mov	r2, #0
   118a4:	e596303c 	ldr	r3, [r6, #60]	; 0x3c
   118a8:	e58a2008 	str	r2, [sl, #8]
   118ac:	e2833001 	add	r3, r3, #1
   118b0:	e586303c 	str	r3, [r6, #60]	; 0x3c
   118b4:	e59f3584 	ldr	r3, [pc, #1412]	; 11e40 <_nl_find_msg+0xb60>
   118b8:	e3530000 	cmp	r3, #0
   118bc:	0a000001 	beq	118c8 <_nl_find_msg+0x5e8>
   118c0:	e2860040 	add	r0, r6, #64	; 0x40
   118c4:	e1a00000 	nop			; (mov r0, r0)
   118c8:	e59a3004 	ldr	r3, [sl, #4]
   118cc:	e3730001 	cmn	r3, #1
   118d0:	0afffefb 	beq	114c4 <_nl_find_msg+0x1e4>
   118d4:	e59a4008 	ldr	r4, [sl, #8]
   118d8:	e3540000 	cmp	r4, #0
   118dc:	0a00008f 	beq	11b20 <_nl_find_msg+0x840>
   118e0:	e3740001 	cmn	r4, #1
   118e4:	0a000018 	beq	1194c <_nl_find_msg+0x66c>
   118e8:	e7944105 	ldr	r4, [r4, r5, lsl #2]
   118ec:	e3540000 	cmp	r4, #0
   118f0:	0a000022 	beq	11980 <_nl_find_msg+0x6a0>
   118f4:	e1a08004 	mov	r8, r4
   118f8:	e4989004 	ldr	r9, [r8], #4
   118fc:	eafffef0 	b	114c4 <_nl_find_msg+0x1e4>
   11900:	e59f7550 	ldr	r7, [pc, #1360]	; 11e58 <_nl_find_msg+0xb78>
   11904:	e5973008 	ldr	r3, [r7, #8]
   11908:	e3530000 	cmp	r3, #0
   1190c:	0a000010 	beq	11954 <_nl_find_msg+0x674>
   11910:	e597400c 	ldr	r4, [r7, #12]
   11914:	e3540000 	cmp	r4, #0
   11918:	1affff36 	bne	115f8 <_nl_find_msg+0x318>
   1191c:	ebfffd47 	bl	10e40 <__aeabi_read_tp>
   11920:	e59f3534 	ldr	r3, [pc, #1332]	; 11e5c <_nl_find_msg+0xb7c>
   11924:	e79f3003 	ldr	r3, [pc, r3]
   11928:	e7903003 	ldr	r3, [r0, r3]
   1192c:	e5933000 	ldr	r3, [r3]
   11930:	e593405c 	ldr	r4, [r3, #92]	; 0x5c
   11934:	eaffff2f 	b	115f8 <_nl_find_msg+0x318>
   11938:	e51b3038 	ldr	r3, [fp, #-56]	; 0xffffffc8
   1193c:	e1530005 	cmp	r3, r5
   11940:	90457003 	subls	r7, r5, r3
   11944:	8affff11 	bhi	11590 <_nl_find_msg+0x2b0>
   11948:	eafffed6 	b	114a8 <_nl_find_msg+0x1c8>
   1194c:	e3e08000 	mvn	r8, #0
   11950:	eafffef9 	b	1153c <_nl_find_msg+0x25c>
   11954:	e59f0504 	ldr	r0, [pc, #1284]	; 11e60 <_nl_find_msg+0xb80>
   11958:	eb001164 	bl	15ef0 <getenv>
   1195c:	e2501000 	subs	r1, r0, #0
   11960:	0a000002 	beq	11970 <_nl_find_msg+0x690>
   11964:	e5d13000 	ldrb	r3, [r1]
   11968:	e3530000 	cmp	r3, #0
   1196c:	1a000090 	bne	11bb4 <_nl_find_msg+0x8d4>
   11970:	e597400c 	ldr	r4, [r7, #12]
   11974:	e3a03001 	mov	r3, #1
   11978:	e5873008 	str	r3, [r7, #8]
   1197c:	eaffffe4 	b	11914 <_nl_find_msg+0x634>
   11980:	e59f34dc 	ldr	r3, [pc, #1244]	; 11e64 <_nl_find_msg+0xb84>
   11984:	e3a01001 	mov	r1, #1
   11988:	e1a02003 	mov	r2, r3
   1198c:	e50b303c 	str	r3, [fp, #-60]	; 0xffffffc4
   11990:	e5923000 	ldr	r3, [r2]
   11994:	e1530004 	cmp	r3, r4
   11998:	1a000005 	bne	119b4 <_nl_find_msg+0x6d4>
   1199c:	e1a00004 	mov	r0, r4
   119a0:	e3e03a0f 	mvn	r3, #61440	; 0xf000
   119a4:	e1a0e00f 	mov	lr, pc
   119a8:	e243f03f 	sub	pc, r3, #63	; 0x3f
   119ac:	3afffff7 	bcc	11990 <_nl_find_msg+0x6b0>
   119b0:	e1a03004 	mov	r3, r4
   119b4:	e3530000 	cmp	r3, #0
   119b8:	1a0000cf 	bne	11cfc <_nl_find_msg+0xa1c>
   119bc:	e59f7494 	ldr	r7, [pc, #1172]	; 11e58 <_nl_find_msg+0xb78>
   119c0:	e3a04000 	mov	r4, #0
   119c4:	e5973014 	ldr	r3, [r7, #20]
   119c8:	e5971018 	ldr	r1, [r7, #24]
   119cc:	e2833004 	add	r3, r3, #4
   119d0:	e50b8034 	str	r8, [fp, #-52]	; 0xffffffcc
   119d4:	e50b3030 	str	r3, [fp, #-48]	; 0xffffffd0
   119d8:	e50b5038 	str	r5, [fp, #-56]	; 0xffffffc8
   119dc:	ea000010 	b	11a24 <_nl_find_msg+0x744>
   119e0:	e2844001 	add	r4, r4, #1
   119e4:	e5976004 	ldr	r6, [r7, #4]
   119e8:	e0641404 	rsb	r1, r4, r4, lsl #8
   119ec:	e1a05201 	lsl	r5, r1, #4
   119f0:	e1a01005 	mov	r1, r5
   119f4:	e1a00006 	mov	r0, r6
   119f8:	e5875018 	str	r5, [r7, #24]
   119fc:	eb006103 	bl	29e10 <__libc_realloc>
   11a00:	e3500000 	cmp	r0, #0
   11a04:	0a000026 	beq	11aa4 <_nl_find_msg+0x7c4>
   11a08:	e5870004 	str	r0, [r7, #4]
   11a0c:	e2451004 	sub	r1, r5, #4
   11a10:	e2803004 	add	r3, r0, #4
   11a14:	e2800008 	add	r0, r0, #8
   11a18:	e5871018 	str	r1, [r7, #24]
   11a1c:	e5873014 	str	r3, [r7, #20]
   11a20:	e50b0030 	str	r0, [fp, #-48]	; 0xffffffd0
   11a24:	e3510003 	cmp	r1, #3
   11a28:	9a000010 	bls	11a70 <_nl_find_msg+0x790>
   11a2c:	e51b3030 	ldr	r3, [fp, #-48]	; 0xffffffd0
   11a30:	e51b2034 	ldr	r2, [fp, #-52]	; 0xffffffcc
   11a34:	e2411004 	sub	r1, r1, #4
   11a38:	e0831001 	add	r1, r3, r1
   11a3c:	e24b302c 	sub	r3, fp, #44	; 0x2c
   11a40:	e59a0004 	ldr	r0, [sl, #4]
   11a44:	e0822009 	add	r2, r2, r9
   11a48:	e58d1000 	str	r1, [sp]
   11a4c:	e58d3004 	str	r3, [sp, #4]
   11a50:	e24b1034 	sub	r1, fp, #52	; 0x34
   11a54:	e24b3030 	sub	r3, fp, #48	; 0x30
   11a58:	eb008296 	bl	324b8 <__gconv>
   11a5c:	e3d03004 	bics	r3, r0, #4
   11a60:	0a00006a 	beq	11c10 <_nl_find_msg+0x930>
   11a64:	e3500005 	cmp	r0, #5
   11a68:	1a00008b 	bne	11c9c <_nl_find_msg+0x9bc>
   11a6c:	e50b8034 	str	r8, [fp, #-52]	; 0xffffffcc
   11a70:	e3540000 	cmp	r4, #0
   11a74:	1affffd9 	bne	119e0 <_nl_find_msg+0x700>
   11a78:	e3a00eff 	mov	r0, #4080	; 0xff0
   11a7c:	e5870018 	str	r0, [r7, #24]
   11a80:	eb005eb5 	bl	2955c <__libc_malloc>
   11a84:	e3500000 	cmp	r0, #0
   11a88:	0a000009 	beq	11ab4 <_nl_find_msg+0x7d4>
   11a8c:	e5973004 	ldr	r3, [r7, #4]
   11a90:	e3a04001 	mov	r4, #1
   11a94:	e59f13cc 	ldr	r1, [pc, #972]	; 11e68 <_nl_find_msg+0xb88>
   11a98:	e5803000 	str	r3, [r0]
   11a9c:	e5870004 	str	r0, [r7, #4]
   11aa0:	eaffffda 	b	11a10 <_nl_find_msg+0x730>
   11aa4:	e5962000 	ldr	r2, [r6]
   11aa8:	e1a00006 	mov	r0, r6
   11aac:	e5872004 	str	r2, [r7, #4]
   11ab0:	eb006037 	bl	29b94 <__free>
   11ab4:	e3a03000 	mov	r3, #0
   11ab8:	e51b203c 	ldr	r2, [fp, #-60]	; 0xffffffc4
   11abc:	e5873014 	str	r3, [r7, #20]
   11ac0:	e5873018 	str	r3, [r7, #24]
   11ac4:	e3a01000 	mov	r1, #0
   11ac8:	e5974010 	ldr	r4, [r7, #16]
   11acc:	e5923000 	ldr	r3, [r2]
   11ad0:	e1530004 	cmp	r3, r4
   11ad4:	1a000005 	bne	11af0 <_nl_find_msg+0x810>
   11ad8:	e1a00004 	mov	r0, r4
   11adc:	e3e03a0f 	mvn	r3, #61440	; 0xf000
   11ae0:	e1a0e00f 	mov	lr, pc
   11ae4:	e243f03f 	sub	pc, r3, #63	; 0x3f
   11ae8:	3afffff7 	bcc	11acc <_nl_find_msg+0x7ec>
   11aec:	e1a03004 	mov	r3, r4
   11af0:	e1540003 	cmp	r4, r3
   11af4:	1afffff2 	bne	11ac4 <_nl_find_msg+0x7e4>
   11af8:	e3540001 	cmp	r4, #1
   11afc:	daffff92 	ble	1194c <_nl_find_msg+0x66c>
   11b00:	e3a01081 	mov	r1, #129	; 0x81
   11b04:	e3a02001 	mov	r2, #1
   11b08:	e3a03000 	mov	r3, #0
   11b0c:	e3a070f0 	mov	r7, #240	; 0xf0
   11b10:	e59f034c 	ldr	r0, [pc, #844]	; 11e64 <_nl_find_msg+0xb84>
   11b14:	ef000000 	svc	0x00000000
   11b18:	e3e08000 	mvn	r8, #0
   11b1c:	eafffe86 	b	1153c <_nl_find_msg+0x25c>
   11b20:	e59f333c 	ldr	r3, [pc, #828]	; 11e64 <_nl_find_msg+0xb84>
   11b24:	e3a01001 	mov	r1, #1
   11b28:	e1a02003 	mov	r2, r3
   11b2c:	e50b303c 	str	r3, [fp, #-60]	; 0xffffffc4
   11b30:	e5923000 	ldr	r3, [r2]
   11b34:	e1530004 	cmp	r3, r4
   11b38:	1a000005 	bne	11b54 <_nl_find_msg+0x874>
   11b3c:	e1a00004 	mov	r0, r4
   11b40:	e3e03a0f 	mvn	r3, #61440	; 0xf000
   11b44:	e1a0e00f 	mov	lr, pc
   11b48:	e243f03f 	sub	pc, r3, #63	; 0x3f
   11b4c:	3afffff7 	bcc	11b30 <_nl_find_msg+0x850>
   11b50:	e1a03004 	mov	r3, r4
   11b54:	e3530000 	cmp	r3, #0
   11b58:	1a00008b 	bne	11d8c <_nl_find_msg+0xaac>
   11b5c:	e59a3008 	ldr	r3, [sl, #8]
   11b60:	e3530000 	cmp	r3, #0
   11b64:	0a00007d 	beq	11d60 <_nl_find_msg+0xa80>
   11b68:	e59f72e8 	ldr	r7, [pc, #744]	; 11e58 <_nl_find_msg+0xb78>
   11b6c:	e51b203c 	ldr	r2, [fp, #-60]	; 0xffffffc4
   11b70:	e3a01000 	mov	r1, #0
   11b74:	e5974010 	ldr	r4, [r7, #16]
   11b78:	e5923000 	ldr	r3, [r2]
   11b7c:	e1530004 	cmp	r3, r4
   11b80:	1a000005 	bne	11b9c <_nl_find_msg+0x8bc>
   11b84:	e1a00004 	mov	r0, r4
   11b88:	e3e03a0f 	mvn	r3, #61440	; 0xf000
   11b8c:	e1a0e00f 	mov	lr, pc
   11b90:	e243f03f 	sub	pc, r3, #63	; 0x3f
   11b94:	3afffff7 	bcc	11b78 <_nl_find_msg+0x898>
   11b98:	e1a03004 	mov	r3, r4
   11b9c:	e1540003 	cmp	r4, r3
   11ba0:	1afffff2 	bne	11b70 <_nl_find_msg+0x890>
   11ba4:	e3540001 	cmp	r4, #1
   11ba8:	ca000086 	bgt	11dc8 <_nl_find_msg+0xae8>
   11bac:	e59a4008 	ldr	r4, [sl, #8]
   11bb0:	eaffff4a 	b	118e0 <_nl_find_msg+0x600>
   11bb4:	e50b103c 	str	r1, [fp, #-60]	; 0xffffffc4
   11bb8:	eb006674 	bl	2b590 <strlen>
   11bbc:	e280a001 	add	sl, r0, #1
   11bc0:	e1a0000a 	mov	r0, sl
   11bc4:	eb005e64 	bl	2955c <__libc_malloc>
   11bc8:	e2504000 	subs	r4, r0, #0
   11bcc:	0a000002 	beq	11bdc <_nl_find_msg+0x8fc>
   11bd0:	e1a0200a 	mov	r2, sl
   11bd4:	e51b103c 	ldr	r1, [fp, #-60]	; 0xffffffc4
   11bd8:	eb006ac8 	bl	2c700 <memcpy>
   11bdc:	e587400c 	str	r4, [r7, #12]
   11be0:	eaffff63 	b	11974 <_nl_find_msg+0x694>
   11be4:	e1a00001 	mov	r0, r1
   11be8:	eb005e5b 	bl	2955c <__libc_malloc>
   11bec:	e1a03000 	mov	r3, r0
   11bf0:	eafffeb5 	b	116cc <_nl_find_msg+0x3ec>
   11bf4:	e59f3244 	ldr	r3, [pc, #580]	; 11e40 <_nl_find_msg+0xb60>
   11bf8:	e3530000 	cmp	r3, #0
   11bfc:	0affff52 	beq	1194c <_nl_find_msg+0x66c>
   11c00:	e2860040 	add	r0, r6, #64	; 0x40
   11c04:	e1a00000 	nop			; (mov r0, r0)
   11c08:	e3e08000 	mvn	r8, #0
   11c0c:	eafffe4a 	b	1153c <_nl_find_msg+0x25c>
   11c10:	e51b2030 	ldr	r2, [fp, #-48]	; 0xffffffd0
   11c14:	e5970014 	ldr	r0, [r7, #20]
   11c18:	e5973018 	ldr	r3, [r7, #24]
   11c1c:	e0421000 	sub	r1, r2, r0
   11c20:	e0433001 	sub	r3, r3, r1
   11c24:	e203c003 	and	ip, r3, #3
   11c28:	e082200c 	add	r2, r2, ip
   11c2c:	e51b5038 	ldr	r5, [fp, #-56]	; 0xffffffc8
   11c30:	e59ac008 	ldr	ip, [sl, #8]
   11c34:	e2411004 	sub	r1, r1, #4
   11c38:	e3c33003 	bic	r3, r3, #3
   11c3c:	e5872014 	str	r2, [r7, #20]
   11c40:	e51b203c 	ldr	r2, [fp, #-60]	; 0xffffffc4
   11c44:	e5801000 	str	r1, [r0]
   11c48:	e5873018 	str	r3, [r7, #24]
   11c4c:	e78c0105 	str	r0, [ip, r5, lsl #2]
   11c50:	e1a05105 	lsl	r5, r5, #2
   11c54:	e3a01000 	mov	r1, #0
   11c58:	e5974010 	ldr	r4, [r7, #16]
   11c5c:	e5923000 	ldr	r3, [r2]
   11c60:	e1530004 	cmp	r3, r4
   11c64:	1a000005 	bne	11c80 <_nl_find_msg+0x9a0>
   11c68:	e1a00004 	mov	r0, r4
   11c6c:	e3e03a0f 	mvn	r3, #61440	; 0xf000
   11c70:	e1a0e00f 	mov	lr, pc
   11c74:	e243f03f 	sub	pc, r3, #63	; 0x3f
   11c78:	3afffff7 	bcc	11c5c <_nl_find_msg+0x97c>
   11c7c:	e1a03004 	mov	r3, r4
   11c80:	e1540003 	cmp	r4, r3
   11c84:	1afffff2 	bne	11c54 <_nl_find_msg+0x974>
   11c88:	e3540001 	cmp	r4, #1
   11c8c:	ca000054 	bgt	11de4 <_nl_find_msg+0xb04>
   11c90:	e59a3008 	ldr	r3, [sl, #8]
   11c94:	e7934005 	ldr	r4, [r3, r5]
   11c98:	eaffff15 	b	118f4 <_nl_find_msg+0x614>
   11c9c:	e51b203c 	ldr	r2, [fp, #-60]	; 0xffffffc4
   11ca0:	e3a01000 	mov	r1, #0
   11ca4:	e5974010 	ldr	r4, [r7, #16]
   11ca8:	e5923000 	ldr	r3, [r2]
   11cac:	e1530004 	cmp	r3, r4
   11cb0:	1a000005 	bne	11ccc <_nl_find_msg+0x9ec>
   11cb4:	e1a00004 	mov	r0, r4
   11cb8:	e3e03a0f 	mvn	r3, #61440	; 0xf000
   11cbc:	e1a0e00f 	mov	lr, pc
   11cc0:	e243f03f 	sub	pc, r3, #63	; 0x3f
   11cc4:	3afffff7 	bcc	11ca8 <_nl_find_msg+0x9c8>
   11cc8:	e1a03004 	mov	r3, r4
   11ccc:	e1540003 	cmp	r4, r3
   11cd0:	1afffff2 	bne	11ca0 <_nl_find_msg+0x9c0>
   11cd4:	e3540001 	cmp	r4, #1
   11cd8:	dafffe16 	ble	11538 <_nl_find_msg+0x258>
   11cdc:	e59f0180 	ldr	r0, [pc, #384]	; 11e64 <_nl_find_msg+0xb84>
   11ce0:	e3a01081 	mov	r1, #129	; 0x81
   11ce4:	e3a02001 	mov	r2, #1
   11ce8:	e3a03000 	mov	r3, #0
   11cec:	e3a070f0 	mov	r7, #240	; 0xf0
   11cf0:	ef000000 	svc	0x00000000
   11cf4:	e1a08003 	mov	r8, r3
   11cf8:	eafffe0f 	b	1153c <_nl_find_msg+0x25c>
   11cfc:	e51b003c 	ldr	r0, [fp, #-60]	; 0xffffffc4
   11d00:	eb004b1d 	bl	2497c <__lll_lock_wait_private>
   11d04:	eaffff2c 	b	119bc <_nl_find_msg+0x6dc>
   11d08:	e3a0202f 	mov	r2, #47	; 0x2f
   11d0c:	e3540000 	cmp	r4, #0
   11d10:	e5c32000 	strb	r2, [r3]
   11d14:	128e3002 	addne	r3, lr, #2
   11d18:	1afffeb8 	bne	11800 <_nl_find_msg+0x520>
   11d1c:	e3a0202f 	mov	r2, #47	; 0x2f
   11d20:	e2830002 	add	r0, r3, #2
   11d24:	e5c32001 	strb	r2, [r3, #1]
   11d28:	e59f113c 	ldr	r1, [pc, #316]	; 11e6c <_nl_find_msg+0xb8c>
   11d2c:	e3a02008 	mov	r2, #8
   11d30:	eb006a51 	bl	2c67c <__mempcpy>
   11d34:	e1a03000 	mov	r3, r0
   11d38:	eafffeb0 	b	11800 <_nl_find_msg+0x520>
   11d3c:	e3a0202f 	mov	r2, #47	; 0x2f
   11d40:	e3570000 	cmp	r7, #0
   11d44:	e5c32000 	strb	r2, [r3]
   11d48:	128e3002 	addne	r3, lr, #2
   11d4c:	1afffeca 	bne	1187c <_nl_find_msg+0x59c>
   11d50:	e3a0202f 	mov	r2, #47	; 0x2f
   11d54:	e2833002 	add	r3, r3, #2
   11d58:	e5432001 	strb	r2, [r3, #-1]
   11d5c:	eafffec6 	b	1187c <_nl_find_msg+0x59c>
   11d60:	e5960020 	ldr	r0, [r6, #32]
   11d64:	e51b3038 	ldr	r3, [fp, #-56]	; 0xffffffc8
   11d68:	e3a01004 	mov	r1, #4
   11d6c:	e0830000 	add	r0, r3, r0
   11d70:	eb00613b 	bl	2a264 <__calloc>
   11d74:	e3500000 	cmp	r0, #0
   11d78:	e58a0008 	str	r0, [sl, #8]
   11d7c:	1affff0e 	bne	119bc <_nl_find_msg+0x6dc>
   11d80:	e3e03000 	mvn	r3, #0
   11d84:	e58a3008 	str	r3, [sl, #8]
   11d88:	eaffff76 	b	11b68 <_nl_find_msg+0x888>
   11d8c:	e51b003c 	ldr	r0, [fp, #-60]	; 0xffffffc4
   11d90:	eb004af9 	bl	2497c <__lll_lock_wait_private>
   11d94:	eaffff70 	b	11b5c <_nl_find_msg+0x87c>
   11d98:	e3730001 	cmn	r3, #1
   11d9c:	0a000023 	beq	11e30 <_nl_find_msg+0xb50>
   11da0:	e59f3098 	ldr	r3, [pc, #152]	; 11e40 <_nl_find_msg+0xb60>
   11da4:	e3530000 	cmp	r3, #0
   11da8:	0a000001 	beq	11db4 <_nl_find_msg+0xad4>
   11dac:	e2860040 	add	r0, r6, #64	; 0x40
   11db0:	e1a00000 	nop			; (mov r0, r0)
   11db4:	e51b0040 	ldr	r0, [fp, #-64]	; 0xffffffc0
   11db8:	eb005f75 	bl	29b94 <__free>
   11dbc:	e3a03000 	mov	r3, #0
   11dc0:	eaffffcb 	b	11cf4 <_nl_find_msg+0xa14>
   11dc4:	eb007a18 	bl	3062c <__stack_chk_fail>
   11dc8:	e3a01081 	mov	r1, #129	; 0x81
   11dcc:	e3a02001 	mov	r2, #1
   11dd0:	e3a03000 	mov	r3, #0
   11dd4:	e3a070f0 	mov	r7, #240	; 0xf0
   11dd8:	e59f0084 	ldr	r0, [pc, #132]	; 11e64 <_nl_find_msg+0xb84>
   11ddc:	ef000000 	svc	0x00000000
   11de0:	eaffff71 	b	11bac <_nl_find_msg+0x8cc>
   11de4:	e3a01081 	mov	r1, #129	; 0x81
   11de8:	e3a02001 	mov	r2, #1
   11dec:	e3a03000 	mov	r3, #0
   11df0:	e3a070f0 	mov	r7, #240	; 0xf0
   11df4:	e59f0068 	ldr	r0, [pc, #104]	; 11e64 <_nl_find_msg+0xb84>
   11df8:	ef000000 	svc	0x00000000
   11dfc:	eaffffa3 	b	11c90 <_nl_find_msg+0x9b0>
   11e00:	e3a0202f 	mov	r2, #47	; 0x2f
   11e04:	e24dd010 	sub	sp, sp, #16
   11e08:	e28d3008 	add	r3, sp, #8
   11e0c:	e50b303c 	str	r3, [fp, #-60]	; 0xffffffc4
   11e10:	e5c32000 	strb	r2, [r3]
   11e14:	eaffffc0 	b	11d1c <_nl_find_msg+0xa3c>
   11e18:	e3a0202f 	mov	r2, #47	; 0x2f
   11e1c:	e24dd008 	sub	sp, sp, #8
   11e20:	e28d3008 	add	r3, sp, #8
   11e24:	e1a04003 	mov	r4, r3
   11e28:	e5c32000 	strb	r2, [r3]
   11e2c:	eaffffc7 	b	11d50 <_nl_find_msg+0xa70>
   11e30:	e58a3004 	str	r3, [sl, #4]
   11e34:	eafffe99 	b	118a0 <_nl_find_msg+0x5c0>
   11e38:	00061a48 	.word	0x00061a48
	...
   11e48:	00075750 	.word	0x00075750
   11e4c:	000619f8 	.word	0x000619f8
   11e50:	00061a04 	.word	0x00061a04
   11e54:	000736a8 	.word	0x000736a8
   11e58:	0008b09c 	.word	0x0008b09c
   11e5c:	00078718 	.word	0x00078718
   11e60:	000619e8 	.word	0x000619e8
   11e64:	0008b0ac 	.word	0x0008b0ac
   11e68:	00000fec 	.word	0x00000fec
   11e6c:	000637e8 	.word	0x000637e8

00011e70 <__dcigettext>:
   11e70:	e92d4ff0 	push	{r4, r5, r6, r7, r8, r9, sl, fp, lr}
   11e74:	e28db020 	add	fp, sp, #32
   11e78:	e24dd064 	sub	sp, sp, #100	; 0x64
   11e7c:	e3a0c000 	mov	ip, #0
   11e80:	e50b305c 	str	r3, [fp, #-92]	; 0xffffffa4
   11e84:	e59f36ec 	ldr	r3, [pc, #1772]	; 12578 <__dcigettext+0x708>
   11e88:	e50b2060 	str	r2, [fp, #-96]	; 0xffffffa0
   11e8c:	e2519000 	subs	r9, r1, #0
   11e90:	e5933000 	ldr	r3, [r3]
   11e94:	e50b3028 	str	r3, [fp, #-40]	; 0xffffffd8
   11e98:	e3a03000 	mov	r3, #0
   11e9c:	e50bc050 	str	ip, [fp, #-80]	; 0xffffffb0
   11ea0:	0a0000a6 	beq	12140 <__dcigettext+0x2d0>
   11ea4:	e59b3008 	ldr	r3, [fp, #8]
   11ea8:	e59b2008 	ldr	r2, [fp, #8]
   11eac:	e2433006 	sub	r3, r3, #6
   11eb0:	e16f3f13 	clz	r3, r3
   11eb4:	e1a032a3 	lsr	r3, r3, #5
   11eb8:	e352000c 	cmp	r2, #12
   11ebc:	83833001 	orrhi	r3, r3, #1
   11ec0:	e153000c 	cmp	r3, ip
   11ec4:	1a0000c3 	bne	121d8 <__dcigettext+0x368>
   11ec8:	e1a08000 	mov	r8, r0
   11ecc:	ebfffbdb 	bl	10e40 <__aeabi_read_tp>
   11ed0:	e59f36a4 	ldr	r3, [pc, #1700]	; 1257c <__dcigettext+0x70c>
   11ed4:	e59f46a4 	ldr	r4, [pc, #1700]	; 12580 <__dcigettext+0x710>
   11ed8:	e79f3003 	ldr	r3, [pc, r3]
   11edc:	e3540000 	cmp	r4, #0
   11ee0:	e7903003 	ldr	r3, [r0, r3]
   11ee4:	e50b3068 	str	r3, [fp, #-104]	; 0xffffff98
   11ee8:	0a000005 	beq	11f04 <__dcigettext+0x94>
   11eec:	e59f0690 	ldr	r0, [pc, #1680]	; 12584 <__dcigettext+0x714>
   11ef0:	e1a00000 	nop			; (mov r0, r0)
   11ef4:	e3540000 	cmp	r4, #0
   11ef8:	0a000001 	beq	11f04 <__dcigettext+0x94>
   11efc:	e59f0684 	ldr	r0, [pc, #1668]	; 12588 <__dcigettext+0x718>
   11f00:	e1a00000 	nop			; (mov r0, r0)
   11f04:	e3580000 	cmp	r8, #0
   11f08:	059f367c 	ldreq	r3, [pc, #1660]	; 1258c <__dcigettext+0x71c>
   11f0c:	e59b0008 	ldr	r0, [fp, #8]
   11f10:	05938000 	ldreq	r8, [r3]
   11f14:	e3a03000 	mov	r3, #0
   11f18:	e50b902c 	str	r9, [fp, #-44]	; 0xffffffd4
   11f1c:	e50b8048 	str	r8, [fp, #-72]	; 0xffffffb8
   11f20:	e50b0044 	str	r0, [fp, #-68]	; 0xffffffbc
   11f24:	e50b3038 	str	r3, [fp, #-56]	; 0xffffffc8
   11f28:	eb00b20f 	bl	3e76c <__current_locale_name>
   11f2c:	e3540000 	cmp	r4, #0
   11f30:	e50b0070 	str	r0, [fp, #-112]	; 0xffffff90
   11f34:	e50b0040 	str	r0, [fp, #-64]	; 0xffffffc0
   11f38:	0a000001 	beq	11f44 <__dcigettext+0xd4>
   11f3c:	e59f064c 	ldr	r0, [pc, #1612]	; 12590 <__dcigettext+0x720>
   11f40:	e1a00000 	nop			; (mov r0, r0)
   11f44:	e59f2648 	ldr	r2, [pc, #1608]	; 12594 <__dcigettext+0x724>
   11f48:	e59f1648 	ldr	r1, [pc, #1608]	; 12598 <__dcigettext+0x728>
   11f4c:	e24b0048 	sub	r0, fp, #72	; 0x48
   11f50:	eb0075c5 	bl	2f66c <__tfind>
   11f54:	e59f3640 	ldr	r3, [pc, #1600]	; 1259c <__dcigettext+0x72c>
   11f58:	e50b0064 	str	r0, [fp, #-100]	; 0xffffff9c
   11f5c:	e3530000 	cmp	r3, #0
   11f60:	0a000001 	beq	11f6c <__dcigettext+0xfc>
   11f64:	e59f0624 	ldr	r0, [pc, #1572]	; 12590 <__dcigettext+0x720>
   11f68:	e1a00000 	nop			; (mov r0, r0)
   11f6c:	e51b3064 	ldr	r3, [fp, #-100]	; 0xffffff9c
   11f70:	e3530000 	cmp	r3, #0
   11f74:	0a000005 	beq	11f90 <__dcigettext+0x120>
   11f78:	e5931000 	ldr	r1, [r3]
   11f7c:	e59f361c 	ldr	r3, [pc, #1564]	; 125a0 <__dcigettext+0x730>
   11f80:	e591200c 	ldr	r2, [r1, #12]
   11f84:	e5933000 	ldr	r3, [r3]
   11f88:	e1520003 	cmp	r2, r3
   11f8c:	0a0000d7 	beq	122f0 <__dcigettext+0x480>
   11f90:	e59f360c 	ldr	r3, [pc, #1548]	; 125a4 <__dcigettext+0x734>
   11f94:	e5935000 	ldr	r5, [r3]
   11f98:	e3550000 	cmp	r5, #0
   11f9c:	1a000075 	bne	12178 <__dcigettext+0x308>
   11fa0:	e59fa600 	ldr	sl, [pc, #1536]	; 125a8 <__dcigettext+0x738>
   11fa4:	e59b1008 	ldr	r1, [fp, #8]
   11fa8:	e59f25fc 	ldr	r2, [pc, #1532]	; 125ac <__dcigettext+0x73c>
   11fac:	e59f35fc 	ldr	r3, [pc, #1532]	; 125b0 <__dcigettext+0x740>
   11fb0:	e7d26001 	ldrb	r6, [r2, r1]
   11fb4:	e1a00001 	mov	r0, r1
   11fb8:	e0866003 	add	r6, r6, r3
   11fbc:	eb00b1ea 	bl	3e76c <__current_locale_name>
   11fc0:	e5d03000 	ldrb	r3, [r0]
   11fc4:	e1a04000 	mov	r4, r0
   11fc8:	e3530043 	cmp	r3, #67	; 0x43
   11fcc:	1a000088 	bne	121f4 <__dcigettext+0x384>
   11fd0:	e5d03001 	ldrb	r3, [r0, #1]
   11fd4:	e3530000 	cmp	r3, #0
   11fd8:	1a000085 	bne	121f4 <__dcigettext+0x384>
   11fdc:	e1a00008 	mov	r0, r8
   11fe0:	eb00656a 	bl	2b590 <strlen>
   11fe4:	e1a03000 	mov	r3, r0
   11fe8:	e1a00006 	mov	r0, r6
   11fec:	e1a07003 	mov	r7, r3
   11ff0:	eb006566 	bl	2b590 <strlen>
   11ff4:	e0803007 	add	r3, r0, r7
   11ff8:	e283300c 	add	r3, r3, #12
   11ffc:	e3c33007 	bic	r3, r3, #7
   12000:	e04dd003 	sub	sp, sp, r3
   12004:	e50b706c 	str	r7, [fp, #-108]	; 0xffffff94
   12008:	e28d7008 	add	r7, sp, #8
   1200c:	e1a01006 	mov	r1, r6
   12010:	e1a00007 	mov	r0, r7
   12014:	eb00699d 	bl	2c690 <__stpcpy>
   12018:	e1a06000 	mov	r6, r0
   1201c:	e3a02002 	mov	r2, #2
   12020:	e59f158c 	ldr	r1, [pc, #1420]	; 125b4 <__dcigettext+0x744>
   12024:	eb0069b5 	bl	2c700 <memcpy>
   12028:	e1a01008 	mov	r1, r8
   1202c:	e51b206c 	ldr	r2, [fp, #-108]	; 0xffffff94
   12030:	e2860001 	add	r0, r6, #1
   12034:	eb006990 	bl	2c67c <__mempcpy>
   12038:	e3a02004 	mov	r2, #4
   1203c:	e59f1574 	ldr	r1, [pc, #1396]	; 125b8 <__dcigettext+0x748>
   12040:	eb0069ae 	bl	2c700 <memcpy>
   12044:	e1a00004 	mov	r0, r4
   12048:	eb006550 	bl	2b590 <strlen>
   1204c:	e2803008 	add	r3, r0, #8
   12050:	e3c33007 	bic	r3, r3, #7
   12054:	e04dd003 	sub	sp, sp, r3
   12058:	e28d6008 	add	r6, sp, #8
   1205c:	e5d43000 	ldrb	r3, [r4]
   12060:	e353003a 	cmp	r3, #58	; 0x3a
   12064:	0a00006a 	beq	12214 <__dcigettext+0x3a4>
   12068:	e3530000 	cmp	r3, #0
   1206c:	1a00006a 	bne	1221c <__dcigettext+0x3ac>
   12070:	e3a03043 	mov	r3, #67	; 0x43
   12074:	e1c630b0 	strh	r3, [r6]
   12078:	e5d63000 	ldrb	r3, [r6]
   1207c:	e3530043 	cmp	r3, #67	; 0x43
   12080:	1a000002 	bne	12090 <__dcigettext+0x220>
   12084:	e5d63001 	ldrb	r3, [r6, #1]
   12088:	e3530000 	cmp	r3, #0
   1208c:	0a000016 	beq	120ec <__dcigettext+0x27c>
   12090:	e1a00006 	mov	r0, r6
   12094:	e59f1520 	ldr	r1, [pc, #1312]	; 125bc <__dcigettext+0x74c>
   12098:	eb00645a 	bl	2b208 <strcmp>
   1209c:	e3500000 	cmp	r0, #0
   120a0:	0a000011 	beq	120ec <__dcigettext+0x27c>
   120a4:	e1a03005 	mov	r3, r5
   120a8:	e1a02007 	mov	r2, r7
   120ac:	e1a01006 	mov	r1, r6
   120b0:	e1a0000a 	mov	r0, sl
   120b4:	eb000148 	bl	125dc <_nl_find_domain>
   120b8:	e2503000 	subs	r3, r0, #0
   120bc:	e50b3058 	str	r3, [fp, #-88]	; 0xffffffa8
   120c0:	0affffe5 	beq	1205c <__dcigettext+0x1ec>
   120c4:	e24b304c 	sub	r3, fp, #76	; 0x4c
   120c8:	e58d3000 	str	r3, [sp]
   120cc:	e1a02009 	mov	r2, r9
   120d0:	e3a03001 	mov	r3, #1
   120d4:	e1a01005 	mov	r1, r5
   120d8:	ebfffc80 	bl	112e0 <_nl_find_msg>
   120dc:	e2503000 	subs	r3, r0, #0
   120e0:	0a000064 	beq	12278 <__dcigettext+0x408>
   120e4:	e3730001 	cmn	r3, #1
   120e8:	1a00009f 	bne	1236c <__dcigettext+0x4fc>
   120ec:	e51b0050 	ldr	r0, [fp, #-80]	; 0xffffffb0
   120f0:	eb005ea7 	bl	29b94 <__free>
   120f4:	e59f34a0 	ldr	r3, [pc, #1184]	; 1259c <__dcigettext+0x72c>
   120f8:	e2534000 	subs	r4, r3, #0
   120fc:	0a000005 	beq	12118 <__dcigettext+0x2a8>
   12100:	e59f0480 	ldr	r0, [pc, #1152]	; 12588 <__dcigettext+0x718>
   12104:	e1a00000 	nop			; (mov r0, r0)
   12108:	e3540000 	cmp	r4, #0
   1210c:	0a000001 	beq	12118 <__dcigettext+0x2a8>
   12110:	e59f046c 	ldr	r0, [pc, #1132]	; 12584 <__dcigettext+0x714>
   12114:	e1a00000 	nop			; (mov r0, r0)
   12118:	e59b3004 	ldr	r3, [fp, #4]
   1211c:	e51b205c 	ldr	r2, [fp, #-92]	; 0xffffffa4
   12120:	ebfffb46 	bl	10e40 <__aeabi_read_tp>
   12124:	e3520000 	cmp	r2, #0
   12128:	13530001 	cmpne	r3, #1
   1212c:	e59f348c 	ldr	r3, [pc, #1164]	; 125c0 <__dcigettext+0x750>
   12130:	e51b2068 	ldr	r2, [fp, #-104]	; 0xffffff98
   12134:	e79f3003 	ldr	r3, [pc, r3]
   12138:	e7802003 	str	r2, [r0, r3]
   1213c:	1a00002a 	bne	121ec <__dcigettext+0x37c>
   12140:	e1a03009 	mov	r3, r9
   12144:	e59f242c 	ldr	r2, [pc, #1068]	; 12578 <__dcigettext+0x708>
   12148:	e5921000 	ldr	r1, [r2]
   1214c:	e51b2028 	ldr	r2, [fp, #-40]	; 0xffffffd8
   12150:	e0321001 	eors	r1, r2, r1
   12154:	e3a02000 	mov	r2, #0
   12158:	1a000105 	bne	12574 <__dcigettext+0x704>
   1215c:	e1a00003 	mov	r0, r3
   12160:	e24bd020 	sub	sp, fp, #32
   12164:	e8bd8ff0 	pop	{r4, r5, r6, r7, r8, r9, sl, fp, pc}
   12168:	ba000076 	blt	12348 <__dcigettext+0x4d8>
   1216c:	e5955000 	ldr	r5, [r5]
   12170:	e3550000 	cmp	r5, #0
   12174:	0affff89 	beq	11fa0 <__dcigettext+0x130>
   12178:	e285100c 	add	r1, r5, #12
   1217c:	e1a00008 	mov	r0, r8
   12180:	eb006420 	bl	2b208 <strcmp>
   12184:	e2501000 	subs	r1, r0, #0
   12188:	1afffff6 	bne	12168 <__dcigettext+0x2f8>
   1218c:	e595a004 	ldr	sl, [r5, #4]
   12190:	e5da3000 	ldrb	r3, [sl]
   12194:	e353002f 	cmp	r3, #47	; 0x2f
   12198:	0affff81 	beq	11fa4 <__dcigettext+0x134>
   1219c:	eb007085 	bl	2e3b8 <__getcwd>
   121a0:	e2504000 	subs	r4, r0, #0
   121a4:	0affffd0 	beq	120ec <__dcigettext+0x27c>
   121a8:	e1a0300a 	mov	r3, sl
   121ac:	e1a02004 	mov	r2, r4
   121b0:	e59f140c 	ldr	r1, [pc, #1036]	; 125c4 <__dcigettext+0x754>
   121b4:	e24b0050 	sub	r0, fp, #80	; 0x50
   121b8:	eb001460 	bl	17340 <___asprintf>
   121bc:	e1a06000 	mov	r6, r0
   121c0:	e1a00004 	mov	r0, r4
   121c4:	eb005e72 	bl	29b94 <__free>
   121c8:	e3560000 	cmp	r6, #0
   121cc:	baffffc6 	blt	120ec <__dcigettext+0x27c>
   121d0:	e51ba050 	ldr	sl, [fp, #-80]	; 0xffffffb0
   121d4:	eaffff72 	b	11fa4 <__dcigettext+0x134>
   121d8:	e51b305c 	ldr	r3, [fp, #-92]	; 0xffffffa4
   121dc:	e59b2004 	ldr	r2, [fp, #4]
   121e0:	e3520001 	cmp	r2, #1
   121e4:	1153000c 	cmpne	r3, ip
   121e8:	0affffd4 	beq	12140 <__dcigettext+0x2d0>
   121ec:	e51b3060 	ldr	r3, [fp, #-96]	; 0xffffffa0
   121f0:	eaffffd3 	b	12144 <__dcigettext+0x2d4>
   121f4:	e59f03cc 	ldr	r0, [pc, #972]	; 125c8 <__dcigettext+0x758>
   121f8:	eb000f3c 	bl	15ef0 <getenv>
   121fc:	e3500000 	cmp	r0, #0
   12200:	0affff75 	beq	11fdc <__dcigettext+0x16c>
   12204:	e5d03000 	ldrb	r3, [r0]
   12208:	e3530000 	cmp	r3, #0
   1220c:	11a04000 	movne	r4, r0
   12210:	eaffff71 	b	11fdc <__dcigettext+0x16c>
   12214:	e2844001 	add	r4, r4, #1
   12218:	eaffff8f 	b	1205c <__dcigettext+0x1ec>
   1221c:	e1a00006 	mov	r0, r6
   12220:	e2841001 	add	r1, r4, #1
   12224:	e4c03001 	strb	r3, [r0], #1
   12228:	e5d13000 	ldrb	r3, [r1]
   1222c:	e1a04001 	mov	r4, r1
   12230:	e253203a 	subs	r2, r3, #58	; 0x3a
   12234:	13a02001 	movne	r2, #1
   12238:	e3530000 	cmp	r3, #0
   1223c:	03a02000 	moveq	r2, #0
   12240:	e3520000 	cmp	r2, #0
   12244:	e2811001 	add	r1, r1, #1
   12248:	1afffff5 	bne	12224 <__dcigettext+0x3b4>
   1224c:	e59f3378 	ldr	r3, [pc, #888]	; 125cc <__dcigettext+0x75c>
   12250:	e5c02000 	strb	r2, [r0]
   12254:	e5933000 	ldr	r3, [r3]
   12258:	e3530000 	cmp	r3, #0
   1225c:	0affff85 	beq	12078 <__dcigettext+0x208>
   12260:	e3a0102f 	mov	r1, #47	; 0x2f
   12264:	e1a00006 	mov	r0, r6
   12268:	eb0063a5 	bl	2b104 <strchr>
   1226c:	e3500000 	cmp	r0, #0
   12270:	1affff79 	bne	1205c <__dcigettext+0x1ec>
   12274:	eaffff7f 	b	12078 <__dcigettext+0x208>
   12278:	e51b2058 	ldr	r2, [fp, #-88]	; 0xffffffa8
   1227c:	e5920010 	ldr	r0, [r2, #16]
   12280:	e3500000 	cmp	r0, #0
   12284:	0affff74 	beq	1205c <__dcigettext+0x1ec>
   12288:	e2822010 	add	r2, r2, #16
   1228c:	e50b4074 	str	r4, [fp, #-116]	; 0xffffff8c
   12290:	e50b7078 	str	r7, [fp, #-120]	; 0xffffff88
   12294:	e1a04002 	mov	r4, r2
   12298:	e1a07009 	mov	r7, r9
   1229c:	e1a09008 	mov	r9, r8
   122a0:	e1a08006 	mov	r8, r6
   122a4:	e1a06005 	mov	r6, r5
   122a8:	e1a05003 	mov	r5, r3
   122ac:	ea000005 	b	122c8 <__dcigettext+0x458>
   122b0:	e3500000 	cmp	r0, #0
   122b4:	1a000025 	bne	12350 <__dcigettext+0x4e0>
   122b8:	e5b40004 	ldr	r0, [r4, #4]!
   122bc:	e2855001 	add	r5, r5, #1
   122c0:	e3500000 	cmp	r0, #0
   122c4:	0a00004e 	beq	12404 <__dcigettext+0x594>
   122c8:	e24b304c 	sub	r3, fp, #76	; 0x4c
   122cc:	e58d3000 	str	r3, [sp]
   122d0:	e1a02007 	mov	r2, r7
   122d4:	e3a03001 	mov	r3, #1
   122d8:	e1a01006 	mov	r1, r6
   122dc:	ebfffbff 	bl	112e0 <_nl_find_msg>
   122e0:	e3700001 	cmn	r0, #1
   122e4:	1afffff1 	bne	122b0 <__dcigettext+0x440>
   122e8:	e1a09007 	mov	r9, r7
   122ec:	eaffff7e 	b	120ec <__dcigettext+0x27c>
   122f0:	e51b305c 	ldr	r3, [fp, #-92]	; 0xffffffa4
   122f4:	e3530000 	cmp	r3, #0
   122f8:	e5913014 	ldr	r3, [r1, #20]
   122fc:	1a000047 	bne	12420 <__dcigettext+0x5b0>
   12300:	e59f4294 	ldr	r4, [pc, #660]	; 1259c <__dcigettext+0x72c>
   12304:	e3540000 	cmp	r4, #0
   12308:	0a000008 	beq	12330 <__dcigettext+0x4c0>
   1230c:	e59f0274 	ldr	r0, [pc, #628]	; 12588 <__dcigettext+0x718>
   12310:	e50b3058 	str	r3, [fp, #-88]	; 0xffffffa8
   12314:	e1a00000 	nop			; (mov r0, r0)
   12318:	e3540000 	cmp	r4, #0
   1231c:	e51b3058 	ldr	r3, [fp, #-88]	; 0xffffffa8
   12320:	0a000002 	beq	12330 <__dcigettext+0x4c0>
   12324:	e59f0258 	ldr	r0, [pc, #600]	; 12584 <__dcigettext+0x714>
   12328:	e1a00000 	nop			; (mov r0, r0)
   1232c:	e51b3058 	ldr	r3, [fp, #-88]	; 0xffffffa8
   12330:	ebfffac2 	bl	10e40 <__aeabi_read_tp>
   12334:	e59f2294 	ldr	r2, [pc, #660]	; 125d0 <__dcigettext+0x760>
   12338:	e51b1068 	ldr	r1, [fp, #-104]	; 0xffffff98
   1233c:	e79f2002 	ldr	r2, [pc, r2]
   12340:	e7801002 	str	r1, [r0, r2]
   12344:	eaffff7e 	b	12144 <__dcigettext+0x2d4>
   12348:	e3a05000 	mov	r5, #0
   1234c:	eaffff13 	b	11fa0 <__dcigettext+0x130>
   12350:	e1a08009 	mov	r8, r9
   12354:	e1a03000 	mov	r3, r0
   12358:	e1a09007 	mov	r9, r7
   1235c:	e51b1058 	ldr	r1, [fp, #-88]	; 0xffffffa8
   12360:	e2852004 	add	r2, r5, #4
   12364:	e7912102 	ldr	r2, [r1, r2, lsl #2]
   12368:	e50b2058 	str	r2, [fp, #-88]	; 0xffffffa8
   1236c:	e51b0050 	ldr	r0, [fp, #-80]	; 0xffffffb0
   12370:	e50b3060 	str	r3, [fp, #-96]	; 0xffffffa0
   12374:	eb005e06 	bl	29b94 <__free>
   12378:	e51b3064 	ldr	r3, [fp, #-100]	; 0xffffff9c
   1237c:	e3530000 	cmp	r3, #0
   12380:	e51b3060 	ldr	r3, [fp, #-96]	; 0xffffffa0
   12384:	0a000035 	beq	12460 <__dcigettext+0x5f0>
   12388:	e59f1210 	ldr	r1, [pc, #528]	; 125a0 <__dcigettext+0x730>
   1238c:	e51b2064 	ldr	r2, [fp, #-100]	; 0xffffff9c
   12390:	e5910000 	ldr	r0, [r1]
   12394:	e5922000 	ldr	r2, [r2]
   12398:	e51b104c 	ldr	r1, [fp, #-76]	; 0xffffffb4
   1239c:	e51bc058 	ldr	ip, [fp, #-88]	; 0xffffffa8
   123a0:	e5823014 	str	r3, [r2, #20]
   123a4:	e582c010 	str	ip, [r2, #16]
   123a8:	e582000c 	str	r0, [r2, #12]
   123ac:	e5821018 	str	r1, [r2, #24]
   123b0:	ebfffaa2 	bl	10e40 <__aeabi_read_tp>
   123b4:	e51b105c 	ldr	r1, [fp, #-92]	; 0xffffffa4
   123b8:	e59f2214 	ldr	r2, [pc, #532]	; 125d4 <__dcigettext+0x764>
   123bc:	e3510000 	cmp	r1, #0
   123c0:	e79f2002 	ldr	r2, [pc, r2]
   123c4:	e51b1068 	ldr	r1, [fp, #-104]	; 0xffffff98
   123c8:	e7801002 	str	r1, [r0, r2]
   123cc:	1a00001b 	bne	12440 <__dcigettext+0x5d0>
   123d0:	e59f41c4 	ldr	r4, [pc, #452]	; 1259c <__dcigettext+0x72c>
   123d4:	e3540000 	cmp	r4, #0
   123d8:	0affff59 	beq	12144 <__dcigettext+0x2d4>
   123dc:	e59f01a4 	ldr	r0, [pc, #420]	; 12588 <__dcigettext+0x718>
   123e0:	e50b3058 	str	r3, [fp, #-88]	; 0xffffffa8
   123e4:	e1a00000 	nop			; (mov r0, r0)
   123e8:	e3540000 	cmp	r4, #0
   123ec:	e51b3058 	ldr	r3, [fp, #-88]	; 0xffffffa8
   123f0:	0affff53 	beq	12144 <__dcigettext+0x2d4>
   123f4:	e59f0188 	ldr	r0, [pc, #392]	; 12584 <__dcigettext+0x714>
   123f8:	e1a00000 	nop			; (mov r0, r0)
   123fc:	e51b3058 	ldr	r3, [fp, #-88]	; 0xffffffa8
   12400:	eaffff4f 	b	12144 <__dcigettext+0x2d4>
   12404:	e1a05006 	mov	r5, r6
   12408:	e51b4074 	ldr	r4, [fp, #-116]	; 0xffffff8c
   1240c:	e1a06008 	mov	r6, r8
   12410:	e1a08009 	mov	r8, r9
   12414:	e1a09007 	mov	r9, r7
   12418:	e51b7078 	ldr	r7, [fp, #-120]	; 0xffffff88
   1241c:	eaffff0e 	b	1205c <__dcigettext+0x1ec>
   12420:	e5910010 	ldr	r0, [r1, #16]
   12424:	e1a02003 	mov	r2, r3
   12428:	e5900008 	ldr	r0, [r0, #8]
   1242c:	e5913018 	ldr	r3, [r1, #24]
   12430:	e59b1004 	ldr	r1, [fp, #4]
   12434:	ebfffb92 	bl	11284 <plural_lookup.isra.0>
   12438:	e1a03000 	mov	r3, r0
   1243c:	eaffffaf 	b	12300 <__dcigettext+0x490>
   12440:	e1a02003 	mov	r2, r3
   12444:	e51b3058 	ldr	r3, [fp, #-88]	; 0xffffffa8
   12448:	e59b1004 	ldr	r1, [fp, #4]
   1244c:	e5930008 	ldr	r0, [r3, #8]
   12450:	e51b304c 	ldr	r3, [fp, #-76]	; 0xffffffb4
   12454:	ebfffb8a 	bl	11284 <plural_lookup.isra.0>
   12458:	e1a03000 	mov	r3, r0
   1245c:	eaffffdb 	b	123d0 <__dcigettext+0x560>
   12460:	e1a00009 	mov	r0, r9
   12464:	eb006449 	bl	2b590 <strlen>
   12468:	e51b7070 	ldr	r7, [fp, #-112]	; 0xffffff90
   1246c:	e1a05000 	mov	r5, r0
   12470:	e1a00007 	mov	r0, r7
   12474:	eb006445 	bl	2b590 <strlen>
   12478:	e51b606c 	ldr	r6, [fp, #-108]	; 0xffffff94
   1247c:	e2855001 	add	r5, r5, #1
   12480:	e286201e 	add	r2, r6, #30
   12484:	e0820000 	add	r0, r2, r0
   12488:	e0800005 	add	r0, r0, r5
   1248c:	eb005c32 	bl	2955c <__libc_malloc>
   12490:	e2504000 	subs	r4, r0, #0
   12494:	e51b3060 	ldr	r3, [fp, #-96]	; 0xffffffa0
   12498:	0affffc4 	beq	123b0 <__dcigettext+0x540>
   1249c:	e1a02005 	mov	r2, r5
   124a0:	e1a01009 	mov	r1, r9
   124a4:	e284001c 	add	r0, r4, #28
   124a8:	eb006873 	bl	2c67c <__mempcpy>
   124ac:	e1a05000 	mov	r5, r0
   124b0:	e2862001 	add	r2, r6, #1
   124b4:	e0806002 	add	r6, r0, r2
   124b8:	e1a01008 	mov	r1, r8
   124bc:	eb00688f 	bl	2c700 <memcpy>
   124c0:	e1a01007 	mov	r1, r7
   124c4:	e1a00006 	mov	r0, r6
   124c8:	eb006358 	bl	2b230 <strcpy>
   124cc:	e59b3008 	ldr	r3, [fp, #8]
   124d0:	e59f20c8 	ldr	r2, [pc, #200]	; 125a0 <__dcigettext+0x730>
   124d4:	e5843004 	str	r3, [r4, #4]
   124d8:	e51b3058 	ldr	r3, [fp, #-88]	; 0xffffffa8
   124dc:	e59f00f4 	ldr	r0, [pc, #244]	; 125d8 <__dcigettext+0x768>
   124e0:	e5921000 	ldr	r1, [r2]
   124e4:	e5843010 	str	r3, [r4, #16]
   124e8:	e51b204c 	ldr	r2, [fp, #-76]	; 0xffffffb4
   124ec:	e51b3060 	ldr	r3, [fp, #-96]	; 0xffffffa0
   124f0:	e3500000 	cmp	r0, #0
   124f4:	e5846008 	str	r6, [r4, #8]
   124f8:	e5845000 	str	r5, [r4]
   124fc:	e5843014 	str	r3, [r4, #20]
   12500:	e584100c 	str	r1, [r4, #12]
   12504:	e5842018 	str	r2, [r4, #24]
   12508:	0a000002 	beq	12518 <__dcigettext+0x6a8>
   1250c:	e59f007c 	ldr	r0, [pc, #124]	; 12590 <__dcigettext+0x720>
   12510:	e1a00000 	nop			; (mov r0, r0)
   12514:	e51b3060 	ldr	r3, [fp, #-96]	; 0xffffffa0
   12518:	e1a00004 	mov	r0, r4
   1251c:	e59f2070 	ldr	r2, [pc, #112]	; 12594 <__dcigettext+0x724>
   12520:	e59f1070 	ldr	r1, [pc, #112]	; 12598 <__dcigettext+0x728>
   12524:	e50b3060 	str	r3, [fp, #-96]	; 0xffffffa0
   12528:	eb0073fa 	bl	2f518 <__tsearch>
   1252c:	e59f3068 	ldr	r3, [pc, #104]	; 1259c <__dcigettext+0x72c>
   12530:	e1a05000 	mov	r5, r0
   12534:	e3530000 	cmp	r3, #0
   12538:	e51b3060 	ldr	r3, [fp, #-96]	; 0xffffffa0
   1253c:	0a000002 	beq	1254c <__dcigettext+0x6dc>
   12540:	e59f0048 	ldr	r0, [pc, #72]	; 12590 <__dcigettext+0x720>
   12544:	e1a00000 	nop			; (mov r0, r0)
   12548:	e51b3060 	ldr	r3, [fp, #-96]	; 0xffffffa0
   1254c:	e3550000 	cmp	r5, #0
   12550:	0a000002 	beq	12560 <__dcigettext+0x6f0>
   12554:	e5952000 	ldr	r2, [r5]
   12558:	e1520004 	cmp	r2, r4
   1255c:	0affff93 	beq	123b0 <__dcigettext+0x540>
   12560:	e1a00004 	mov	r0, r4
   12564:	e50b3060 	str	r3, [fp, #-96]	; 0xffffffa0
   12568:	eb005d89 	bl	29b94 <__free>
   1256c:	e51b3060 	ldr	r3, [fp, #-96]	; 0xffffffa0
   12570:	eaffff8e 	b	123b0 <__dcigettext+0x540>
   12574:	eb00782c 	bl	3062c <__stack_chk_fail>
   12578:	00061a4c 	.word	0x00061a4c
   1257c:	00078168 	.word	0x00078168
   12580:	00000000 	.word	0x00000000
   12584:	0008b430 	.word	0x0008b430
   12588:	0008b0b8 	.word	0x0008b0b8
   1258c:	0008a094 	.word	0x0008a094
   12590:	0008b0d8 	.word	0x0008b0d8
   12594:	00011218 	.word	0x00011218
   12598:	0008b09c 	.word	0x0008b09c
   1259c:	00000000 	.word	0x00000000
   125a0:	0008b828 	.word	0x0008b828
   125a4:	0008b824 	.word	0x0008b824
   125a8:	00061a28 	.word	0x00061a28
   125ac:	0006505c 	.word	0x0006505c
   125b0:	00064fd0 	.word	0x00064fd0
   125b4:	0006442c 	.word	0x0006442c
   125b8:	00061a1c 	.word	0x00061a1c
   125bc:	00061a20 	.word	0x00061a20
   125c0:	00077f0c 	.word	0x00077f0c
   125c4:	00061a08 	.word	0x00061a08
   125c8:	00061a10 	.word	0x00061a10
   125cc:	00089fdc 	.word	0x00089fdc
   125d0:	00077d04 	.word	0x00077d04
   125d4:	00077c80 	.word	0x00077c80
   125d8:	00000000 	.word	0x00000000

000125dc <_nl_find_domain>:
   125dc:	e92d4ff0 	push	{r4, r5, r6, r7, r8, r9, sl, fp, lr}
   125e0:	e59fc294 	ldr	ip, [pc, #660]	; 1287c <_nl_find_domain+0x2a0>
   125e4:	e1a07003 	mov	r7, r3
   125e8:	e59f3290 	ldr	r3, [pc, #656]	; 12880 <_nl_find_domain+0x2a4>
   125ec:	e24dd03c 	sub	sp, sp, #60	; 0x3c
   125f0:	e35c0000 	cmp	ip, #0
   125f4:	e1a05000 	mov	r5, r0
   125f8:	e1a06001 	mov	r6, r1
   125fc:	e1a08002 	mov	r8, r2
   12600:	e5933000 	ldr	r3, [r3]
   12604:	e58d3034 	str	r3, [sp, #52]	; 0x34
   12608:	e3a03000 	mov	r3, #0
   1260c:	0a000001 	beq	12618 <_nl_find_domain+0x3c>
   12610:	e59f026c 	ldr	r0, [pc, #620]	; 12884 <_nl_find_domain+0x2a8>
   12614:	e1a00000 	nop			; (mov r0, r0)
   12618:	e1a00005 	mov	r0, r5
   1261c:	eb0063db 	bl	2b590 <strlen>
   12620:	e3a03000 	mov	r3, #0
   12624:	e2802001 	add	r2, r0, #1
   12628:	e1a01005 	mov	r1, r5
   1262c:	e59f0254 	ldr	r0, [pc, #596]	; 12888 <_nl_find_domain+0x2ac>
   12630:	e58d8014 	str	r8, [sp, #20]
   12634:	e58d6000 	str	r6, [sp]
   12638:	e58d3018 	str	r3, [sp, #24]
   1263c:	e58d3010 	str	r3, [sp, #16]
   12640:	e58d300c 	str	r3, [sp, #12]
   12644:	e58d3008 	str	r3, [sp, #8]
   12648:	e58d3004 	str	r3, [sp, #4]
   1264c:	eb00079e 	bl	144cc <_nl_make_l10nflist>
   12650:	e59f9234 	ldr	r9, [pc, #564]	; 1288c <_nl_find_domain+0x2b0>
   12654:	e1a04000 	mov	r4, r0
   12658:	e3590000 	cmp	r9, #0
   1265c:	0a000001 	beq	12668 <_nl_find_domain+0x8c>
   12660:	e59f021c 	ldr	r0, [pc, #540]	; 12884 <_nl_find_domain+0x2a8>
   12664:	e1a00000 	nop			; (mov r0, r0)
   12668:	e3540000 	cmp	r4, #0
   1266c:	0a000024 	beq	12704 <_nl_find_domain+0x128>
   12670:	e5943004 	ldr	r3, [r4, #4]
   12674:	e3530000 	cmp	r3, #0
   12678:	da00001d 	ble	126f4 <_nl_find_domain+0x118>
   1267c:	e5943008 	ldr	r3, [r4, #8]
   12680:	e3530000 	cmp	r3, #0
   12684:	0a000008 	beq	126ac <_nl_find_domain+0xd0>
   12688:	e59f31f0 	ldr	r3, [pc, #496]	; 12880 <_nl_find_domain+0x2a4>
   1268c:	e5932000 	ldr	r2, [r3]
   12690:	e59d3034 	ldr	r3, [sp, #52]	; 0x34
   12694:	e0332002 	eors	r2, r3, r2
   12698:	e3a03000 	mov	r3, #0
   1269c:	1a000075 	bne	12878 <_nl_find_domain+0x29c>
   126a0:	e1a00004 	mov	r0, r4
   126a4:	e28dd03c 	add	sp, sp, #60	; 0x3c
   126a8:	e8bd8ff0 	pop	{r4, r5, r6, r7, r8, r9, sl, fp, pc}
   126ac:	e5940010 	ldr	r0, [r4, #16]
   126b0:	e3500000 	cmp	r0, #0
   126b4:	0afffff3 	beq	12688 <_nl_find_domain+0xac>
   126b8:	e2845010 	add	r5, r4, #16
   126bc:	ea000006 	b	126dc <_nl_find_domain+0x100>
   126c0:	e4953004 	ldr	r3, [r5], #4
   126c4:	e5932008 	ldr	r2, [r3, #8]
   126c8:	e3520000 	cmp	r2, #0
   126cc:	1affffed 	bne	12688 <_nl_find_domain+0xac>
   126d0:	e5950000 	ldr	r0, [r5]
   126d4:	e3500000 	cmp	r0, #0
   126d8:	0affffea 	beq	12688 <_nl_find_domain+0xac>
   126dc:	e5903004 	ldr	r3, [r0, #4]
   126e0:	e3530000 	cmp	r3, #0
   126e4:	cafffff5 	bgt	126c0 <_nl_find_domain+0xe4>
   126e8:	e1a01007 	mov	r1, r7
   126ec:	eb000068 	bl	12894 <_nl_load_domain>
   126f0:	eafffff2 	b	126c0 <_nl_find_domain+0xe4>
   126f4:	e1a01007 	mov	r1, r7
   126f8:	e1a00004 	mov	r0, r4
   126fc:	eb000064 	bl	12894 <_nl_load_domain>
   12700:	eaffffdd 	b	1267c <_nl_find_domain+0xa0>
   12704:	e1a00006 	mov	r0, r6
   12708:	eb0006f9 	bl	142f4 <_nl_expand_alias>
   1270c:	e250b000 	subs	fp, r0, #0
   12710:	0a000008 	beq	12738 <_nl_find_domain+0x15c>
   12714:	eb00639d 	bl	2b590 <strlen>
   12718:	e280a001 	add	sl, r0, #1
   1271c:	e1a0000a 	mov	r0, sl
   12720:	eb005b8d 	bl	2955c <__libc_malloc>
   12724:	e2506000 	subs	r6, r0, #0
   12728:	0affffd6 	beq	12688 <_nl_find_domain+0xac>
   1272c:	e1a0200a 	mov	r2, sl
   12730:	e1a0100b 	mov	r1, fp
   12734:	eb0067f1 	bl	2c700 <memcpy>
   12738:	e28d2030 	add	r2, sp, #48	; 0x30
   1273c:	e28d302c 	add	r3, sp, #44	; 0x2c
   12740:	e58d2004 	str	r2, [sp, #4]
   12744:	e58d3000 	str	r3, [sp]
   12748:	e1a00006 	mov	r0, r6
   1274c:	e28d3028 	add	r3, sp, #40	; 0x28
   12750:	e28d2024 	add	r2, sp, #36	; 0x24
   12754:	e28d1020 	add	r1, sp, #32
   12758:	eb000903 	bl	14b6c <_nl_explode_name>
   1275c:	e3700001 	cmn	r0, #1
   12760:	e1a0a000 	mov	sl, r0
   12764:	0affffc7 	beq	12688 <_nl_find_domain+0xac>
   12768:	e59f3120 	ldr	r3, [pc, #288]	; 12890 <_nl_find_domain+0x2b4>
   1276c:	e3530000 	cmp	r3, #0
   12770:	0a000001 	beq	1277c <_nl_find_domain+0x1a0>
   12774:	e59f0108 	ldr	r0, [pc, #264]	; 12884 <_nl_find_domain+0x2a8>
   12778:	e1a00000 	nop			; (mov r0, r0)
   1277c:	e1a00005 	mov	r0, r5
   12780:	eb006382 	bl	2b590 <strlen>
   12784:	e3a0c001 	mov	ip, #1
   12788:	e59d3030 	ldr	r3, [sp, #48]	; 0x30
   1278c:	e080200c 	add	r2, r0, ip
   12790:	e59de024 	ldr	lr, [sp, #36]	; 0x24
   12794:	e59d0028 	ldr	r0, [sp, #40]	; 0x28
   12798:	e58dc018 	str	ip, [sp, #24]
   1279c:	e58d300c 	str	r3, [sp, #12]
   127a0:	e59dc02c 	ldr	ip, [sp, #44]	; 0x2c
   127a4:	e59d3020 	ldr	r3, [sp, #32]
   127a8:	e98d1001 	stmib	sp, {r0, ip}
   127ac:	e58d3000 	str	r3, [sp]
   127b0:	e1a01005 	mov	r1, r5
   127b4:	e1a0300a 	mov	r3, sl
   127b8:	e59f00c8 	ldr	r0, [pc, #200]	; 12888 <_nl_find_domain+0x2ac>
   127bc:	e58d8014 	str	r8, [sp, #20]
   127c0:	e58de010 	str	lr, [sp, #16]
   127c4:	eb000740 	bl	144cc <_nl_make_l10nflist>
   127c8:	e3590000 	cmp	r9, #0
   127cc:	e1a04000 	mov	r4, r0
   127d0:	0a000001 	beq	127dc <_nl_find_domain+0x200>
   127d4:	e59f00a8 	ldr	r0, [pc, #168]	; 12884 <_nl_find_domain+0x2a8>
   127d8:	e1a00000 	nop			; (mov r0, r0)
   127dc:	e3540000 	cmp	r4, #0
   127e0:	0a000009 	beq	1280c <_nl_find_domain+0x230>
   127e4:	e5943004 	ldr	r3, [r4, #4]
   127e8:	e3530000 	cmp	r3, #0
   127ec:	da00001d 	ble	12868 <_nl_find_domain+0x28c>
   127f0:	e5943008 	ldr	r3, [r4, #8]
   127f4:	e3530000 	cmp	r3, #0
   127f8:	0a000008 	beq	12820 <_nl_find_domain+0x244>
   127fc:	e35b0000 	cmp	fp, #0
   12800:	0a000001 	beq	1280c <_nl_find_domain+0x230>
   12804:	e1a00006 	mov	r0, r6
   12808:	eb005ce1 	bl	29b94 <__free>
   1280c:	e31a0001 	tst	sl, #1
   12810:	0affff9c 	beq	12688 <_nl_find_domain+0xac>
   12814:	e59d0030 	ldr	r0, [sp, #48]	; 0x30
   12818:	eb005cdd 	bl	29b94 <__free>
   1281c:	eaffff99 	b	12688 <_nl_find_domain+0xac>
   12820:	e5940010 	ldr	r0, [r4, #16]
   12824:	e3500000 	cmp	r0, #0
   12828:	0afffff3 	beq	127fc <_nl_find_domain+0x220>
   1282c:	e2845010 	add	r5, r4, #16
   12830:	ea000006 	b	12850 <_nl_find_domain+0x274>
   12834:	e4953004 	ldr	r3, [r5], #4
   12838:	e5933008 	ldr	r3, [r3, #8]
   1283c:	e3530000 	cmp	r3, #0
   12840:	1affffed 	bne	127fc <_nl_find_domain+0x220>
   12844:	e5950000 	ldr	r0, [r5]
   12848:	e3500000 	cmp	r0, #0
   1284c:	0affffea 	beq	127fc <_nl_find_domain+0x220>
   12850:	e5903004 	ldr	r3, [r0, #4]
   12854:	e3530000 	cmp	r3, #0
   12858:	cafffff5 	bgt	12834 <_nl_find_domain+0x258>
   1285c:	e1a01007 	mov	r1, r7
   12860:	eb00000b 	bl	12894 <_nl_load_domain>
   12864:	eafffff2 	b	12834 <_nl_find_domain+0x258>
   12868:	e1a01007 	mov	r1, r7
   1286c:	e1a00004 	mov	r0, r4
   12870:	eb000007 	bl	12894 <_nl_load_domain>
   12874:	eaffffdd 	b	127f0 <_nl_find_domain+0x214>
   12878:	eb00776b 	bl	3062c <__stack_chk_fail>
   1287c:	00000000 	.word	0x00000000
   12880:	00061a50 	.word	0x00061a50
   12884:	0008b0f8 	.word	0x0008b0f8
   12888:	0008b118 	.word	0x0008b118
	...

00012894 <_nl_load_domain>:
   12894:	e92d4ff0 	push	{r4, r5, r6, r7, r8, r9, sl, fp, lr}
   12898:	e1a06000 	mov	r6, r0
   1289c:	ebfff967 	bl	10e40 <__aeabi_read_tp>
   128a0:	e59f5f30 	ldr	r5, [pc, #3888]	; 137d8 <_nl_load_domain+0xf44>
   128a4:	e2407d13 	sub	r7, r0, #1216	; 0x4c0
   128a8:	e5953008 	ldr	r3, [r5, #8]
   128ac:	e24dd0ec 	sub	sp, sp, #236	; 0xec
   128b0:	e1530007 	cmp	r3, r7
   128b4:	e59f3f20 	ldr	r3, [pc, #3872]	; 137dc <_nl_load_domain+0xf48>
   128b8:	e58d100c 	str	r1, [sp, #12]
   128bc:	e5933000 	ldr	r3, [r3]
   128c0:	e58d30e4 	str	r3, [sp, #228]	; 0xe4
   128c4:	e3a03000 	mov	r3, #0
   128c8:	0a00000e 	beq	12908 <_nl_load_domain+0x74>
   128cc:	e3a01001 	mov	r1, #1
   128d0:	e1a02005 	mov	r2, r5
   128d4:	e3a04000 	mov	r4, #0
   128d8:	e5923000 	ldr	r3, [r2]
   128dc:	e1530004 	cmp	r3, r4
   128e0:	1a000005 	bne	128fc <_nl_load_domain+0x68>
   128e4:	e1a00004 	mov	r0, r4
   128e8:	e3e03a0f 	mvn	r3, #61440	; 0xf000
   128ec:	e1a0e00f 	mov	lr, pc
   128f0:	e243f03f 	sub	pc, r3, #63	; 0x3f
   128f4:	3afffff7 	bcc	128d8 <_nl_load_domain+0x44>
   128f8:	e1a03004 	mov	r3, r4
   128fc:	e1530004 	cmp	r3, r4
   12900:	1a00015e 	bne	12e80 <_nl_load_domain+0x5ec>
   12904:	e5857008 	str	r7, [r5, #8]
   12908:	e5953004 	ldr	r3, [r5, #4]
   1290c:	e5961004 	ldr	r1, [r6, #4]
   12910:	e2832001 	add	r2, r3, #1
   12914:	e3510000 	cmp	r1, #0
   12918:	e5852004 	str	r2, [r5, #4]
   1291c:	1a00010c 	bne	12d54 <_nl_load_domain+0x4c0>
   12920:	e3e02000 	mvn	r2, #0
   12924:	e5960000 	ldr	r0, [r6]
   12928:	e5861008 	str	r1, [r6, #8]
   1292c:	e3500000 	cmp	r0, #0
   12930:	e5862004 	str	r2, [r6, #4]
   12934:	0a000104 	beq	12d4c <_nl_load_domain+0x4b8>
   12938:	eb0070e9 	bl	2ece4 <__open_nocancel>
   1293c:	e3700001 	cmn	r0, #1
   12940:	e1a04000 	mov	r4, r0
   12944:	0a000128 	beq	12dec <_nl_load_domain+0x558>
   12948:	e1a01000 	mov	r1, r0
   1294c:	e28d2070 	add	r2, sp, #112	; 0x70
   12950:	e3a00003 	mov	r0, #3
   12954:	eb006db6 	bl	2e034 <___fxstat64>
   12958:	e2508000 	subs	r8, r0, #0
   1295c:	1a000120 	bne	12de4 <_nl_load_domain+0x550>
   12960:	e28da0a0 	add	sl, sp, #160	; 0xa0
   12964:	e89a0600 	ldm	sl, {r9, sl}
   12968:	e158000a 	cmp	r8, sl
   1296c:	01590009 	cmpeq	r9, r9
   12970:	e1a03008 	mov	r3, r8
   12974:	13a03001 	movne	r3, #1
   12978:	03a03000 	moveq	r3, #0
   1297c:	e359002f 	cmp	r9, #47	; 0x2f
   12980:	93833001 	orrls	r3, r3, #1
   12984:	e3530000 	cmp	r3, #0
   12988:	e58d9010 	str	r9, [sp, #16]
   1298c:	e58da014 	str	sl, [sp, #20]
   12990:	1a000113 	bne	12de4 <_nl_load_domain+0x550>
   12994:	e3a03002 	mov	r3, #2
   12998:	e3a02001 	mov	r2, #1
   1299c:	e1a01009 	mov	r1, r9
   129a0:	e88d0110 	stm	sp, {r4, r8}
   129a4:	eb0071b3 	bl	2f078 <__mmap>
   129a8:	e3700001 	cmn	r0, #1
   129ac:	e1a0b000 	mov	fp, r0
   129b0:	0a000148 	beq	12ed8 <_nl_load_domain+0x644>
   129b4:	e1a00004 	mov	r0, r4
   129b8:	eb00706d 	bl	2eb74 <__close_nocancel>
   129bc:	e59b4000 	ldr	r4, [fp]
   129c0:	e59f3e30 	ldr	r3, [pc, #3632]	; 137f8 <_nl_load_domain+0xf64>
   129c4:	e59f2e14 	ldr	r2, [pc, #3604]	; 137e0 <_nl_load_domain+0xf4c>
   129c8:	e0549003 	subs	r9, r4, r3
   129cc:	13a09001 	movne	r9, #1
   129d0:	e1540002 	cmp	r4, r2
   129d4:	11540003 	cmpne	r4, r3
   129d8:	1a000163 	bne	12f6c <_nl_load_domain+0x6d8>
   129dc:	e3a08001 	mov	r8, #1
   129e0:	e3a00068 	mov	r0, #104	; 0x68
   129e4:	eb005adc 	bl	2955c <__libc_malloc>
   129e8:	e2507000 	subs	r7, r0, #0
   129ec:	0a0000fe 	beq	12dec <_nl_load_domain+0x558>
   129f0:	e3a03000 	mov	r3, #0
   129f4:	e59f2dfc 	ldr	r2, [pc, #3580]	; 137f8 <_nl_load_domain+0xf64>
   129f8:	e5873010 	str	r3, [r7, #16]
   129fc:	e1540002 	cmp	r4, r2
   12a00:	e59d2010 	ldr	r2, [sp, #16]
   12a04:	e59b3004 	ldr	r3, [fp, #4]
   12a08:	e5867008 	str	r7, [r6, #8]
   12a0c:	e587b000 	str	fp, [r7]
   12a10:	e5878004 	str	r8, [r7, #4]
   12a14:	e5872008 	str	r2, [r7, #8]
   12a18:	e587900c 	str	r9, [r7, #12]
   12a1c:	0a0000aa 	beq	12ccc <_nl_load_domain+0x438>
   12a20:	e0232863 	eor	r2, r3, r3, ror #16
   12a24:	e1a02422 	lsr	r2, r2, #8
   12a28:	e3c22cff 	bic	r2, r2, #65280	; 0xff00
   12a2c:	e0223463 	eor	r3, r2, r3, ror #8
   12a30:	e3530802 	cmp	r3, #131072	; 0x20000
   12a34:	2a0000b8 	bcs	12d1c <_nl_load_domain+0x488>
   12a38:	e59b200c 	ldr	r2, [fp, #12]
   12a3c:	e59b0010 	ldr	r0, [fp, #16]
   12a40:	e0221862 	eor	r1, r2, r2, ror #16
   12a44:	e1a01421 	lsr	r1, r1, #8
   12a48:	e3c11cff 	bic	r1, r1, #65280	; 0xff00
   12a4c:	e0211462 	eor	r1, r1, r2, ror #8
   12a50:	e0202860 	eor	r2, r0, r0, ror #16
   12a54:	e59be014 	ldr	lr, [fp, #20]
   12a58:	e1a02422 	lsr	r2, r2, #8
   12a5c:	e3c22cff 	bic	r2, r2, #65280	; 0xff00
   12a60:	e0222460 	eor	r2, r2, r0, ror #8
   12a64:	e02e086e 	eor	r0, lr, lr, ror #16
   12a68:	e59bc008 	ldr	ip, [fp, #8]
   12a6c:	e1a00420 	lsr	r0, r0, #8
   12a70:	e3c00cff 	bic	r0, r0, #65280	; 0xff00
   12a74:	e020e46e 	eor	lr, r0, lr, ror #8
   12a78:	e02c086c 	eor	r0, ip, ip, ror #16
   12a7c:	e1a00420 	lsr	r0, r0, #8
   12a80:	e3c00cff 	bic	r0, r0, #65280	; 0xff00
   12a84:	e1a03803 	lsl	r3, r3, #16
   12a88:	e08b1001 	add	r1, fp, r1
   12a8c:	e08b2002 	add	r2, fp, r2
   12a90:	e020046c 	eor	r0, r0, ip, ror #8
   12a94:	e35e0002 	cmp	lr, #2
   12a98:	e58de018 	str	lr, [sp, #24]
   12a9c:	e1a03823 	lsr	r3, r3, #16
   12aa0:	e5871018 	str	r1, [r7, #24]
   12aa4:	e587201c 	str	r2, [r7, #28]
   12aa8:	e5870014 	str	r0, [r7, #20]
   12aac:	e587e02c 	str	lr, [r7, #44]	; 0x2c
   12ab0:	9a000094 	bls	12d08 <_nl_load_domain+0x474>
   12ab4:	e59b2018 	ldr	r2, [fp, #24]
   12ab8:	e3530000 	cmp	r3, #0
   12abc:	e022c862 	eor	ip, r2, r2, ror #16
   12ac0:	e1a0c42c 	lsr	ip, ip, #8
   12ac4:	e3ccccff 	bic	ip, ip, #65280	; 0xff00
   12ac8:	e02cc462 	eor	ip, ip, r2, ror #8
   12acc:	e08b300c 	add	r3, fp, ip
   12ad0:	e58d302c 	str	r3, [sp, #44]	; 0x2c
   12ad4:	e5879034 	str	r9, [r7, #52]	; 0x34
   12ad8:	e5873030 	str	r3, [r7, #48]	; 0x30
   12adc:	0a0000cc 	beq	12e14 <_nl_load_domain+0x580>
   12ae0:	e59b2024 	ldr	r2, [fp, #36]	; 0x24
   12ae4:	e0223862 	eor	r3, r2, r2, ror #16
   12ae8:	e1a03423 	lsr	r3, r3, #8
   12aec:	e3c33cff 	bic	r3, r3, #65280	; 0xff00
   12af0:	e0333462 	eors	r3, r3, r2, ror #8
   12af4:	e58d301c 	str	r3, [sp, #28]
   12af8:	0a0000c5 	beq	12e14 <_nl_load_domain+0x580>
   12afc:	e59b101c 	ldr	r1, [fp, #28]
   12b00:	e59b0020 	ldr	r0, [fp, #32]
   12b04:	e0212861 	eor	r2, r1, r1, ror #16
   12b08:	e0203860 	eor	r3, r0, r0, ror #16
   12b0c:	e1a02422 	lsr	r2, r2, #8
   12b10:	e1a03423 	lsr	r3, r3, #8
   12b14:	e3c22cff 	bic	r2, r2, #65280	; 0xff00
   12b18:	e3c33cff 	bic	r3, r3, #65280	; 0xff00
   12b1c:	e0222461 	eor	r2, r2, r1, ror #8
   12b20:	e58d2028 	str	r2, [sp, #40]	; 0x28
   12b24:	e0233460 	eor	r3, r3, r0, ror #8
   12b28:	e59da028 	ldr	sl, [sp, #40]	; 0x28
   12b2c:	e3a01004 	mov	r1, #4
   12b30:	e1a0000a 	mov	r0, sl
   12b34:	e08b9003 	add	r9, fp, r3
   12b38:	eb005dc9 	bl	2a264 <__calloc>
   12b3c:	e2503000 	subs	r3, r0, #0
   12b40:	e58d3024 	str	r3, [sp, #36]	; 0x24
   12b44:	0a000074 	beq	12d1c <_nl_load_domain+0x488>
   12b48:	e35a0000 	cmp	sl, #0
   12b4c:	0a000116 	beq	12fac <_nl_load_domain+0x718>
   12b50:	e59d3024 	ldr	r3, [sp, #36]	; 0x24
   12b54:	e3a02000 	mov	r2, #0
   12b58:	e59d0028 	ldr	r0, [sp, #40]	; 0x28
   12b5c:	e243e004 	sub	lr, r3, #4
   12b60:	e289a004 	add	sl, r9, #4
   12b64:	e58d8020 	str	r8, [sp, #32]
   12b68:	e58d7030 	str	r7, [sp, #48]	; 0x30
   12b6c:	e58d6034 	str	r6, [sp, #52]	; 0x34
   12b70:	ea00000a 	b	12ba0 <_nl_load_domain+0x30c>
   12b74:	e35c0049 	cmp	ip, #73	; 0x49
   12b78:	1a000004 	bne	12b90 <_nl_load_domain+0x2fc>
   12b7c:	e5d33001 	ldrb	r3, [r3, #1]
   12b80:	e3530000 	cmp	r3, #0
   12b84:	e59f3c58 	ldr	r3, [pc, #3160]	; 137e4 <_nl_load_domain+0xf50>
   12b88:	13a01000 	movne	r1, #0
   12b8c:	01a01003 	moveq	r1, r3
   12b90:	e2822001 	add	r2, r2, #1
   12b94:	e1520000 	cmp	r2, r0
   12b98:	e5ae1004 	str	r1, [lr, #4]!
   12b9c:	0a0000ff 	beq	12fa0 <_nl_load_domain+0x70c>
   12ba0:	e59f3c50 	ldr	r3, [pc, #3152]	; 137f8 <_nl_load_domain+0xf64>
   12ba4:	e7991182 	ldr	r1, [r9, r2, lsl #3]
   12ba8:	e1540003 	cmp	r4, r3
   12bac:	e79a3182 	ldr	r3, [sl, r2, lsl #3]
   12bb0:	10217861 	eorne	r7, r1, r1, ror #16
   12bb4:	1023c863 	eorne	ip, r3, r3, ror #16
   12bb8:	11a0c42c 	lsrne	ip, ip, #8
   12bbc:	11a07427 	lsrne	r7, r7, #8
   12bc0:	13ccccff 	bicne	ip, ip, #65280	; 0xff00
   12bc4:	13c77cff 	bicne	r7, r7, #65280	; 0xff00
   12bc8:	102c3463 	eorne	r3, ip, r3, ror #8
   12bcc:	10271461 	eorne	r1, r7, r1, ror #8
   12bd0:	108b3003 	addne	r3, fp, r3
   12bd4:	008b3003 	addeq	r3, fp, r3
   12bd8:	e3510000 	cmp	r1, #0
   12bdc:	0a0000db 	beq	12f50 <_nl_load_domain+0x6bc>
   12be0:	e0831001 	add	r1, r3, r1
   12be4:	e5511001 	ldrb	r1, [r1, #-1]
   12be8:	e3510000 	cmp	r1, #0
   12bec:	1a0000d7 	bne	12f50 <_nl_load_domain+0x6bc>
   12bf0:	e5d3c000 	ldrb	ip, [r3]
   12bf4:	e35c0050 	cmp	ip, #80	; 0x50
   12bf8:	1affffdd 	bne	12b74 <_nl_load_domain+0x2e0>
   12bfc:	e5d3c001 	ldrb	ip, [r3, #1]
   12c00:	e35c0052 	cmp	ip, #82	; 0x52
   12c04:	1affffe1 	bne	12b90 <_nl_load_domain+0x2fc>
   12c08:	e5d3c002 	ldrb	ip, [r3, #2]
   12c0c:	e35c0049 	cmp	ip, #73	; 0x49
   12c10:	1affffde 	bne	12b90 <_nl_load_domain+0x2fc>
   12c14:	e5d3c003 	ldrb	ip, [r3, #3]
   12c18:	e35c0069 	cmp	ip, #105	; 0x69
   12c1c:	135c0064 	cmpne	ip, #100	; 0x64
   12c20:	03a07001 	moveq	r7, #1
   12c24:	13a07000 	movne	r7, #0
   12c28:	e35c006f 	cmp	ip, #111	; 0x6f
   12c2c:	135c0075 	cmpne	ip, #117	; 0x75
   12c30:	03a06001 	moveq	r6, #1
   12c34:	13a06000 	movne	r6, #0
   12c38:	e58d7038 	str	r7, [sp, #56]	; 0x38
   12c3c:	e20c80df 	and	r8, ip, #223	; 0xdf
   12c40:	e1877006 	orr	r7, r7, r6
   12c44:	e1a06007 	mov	r6, r7
   12c48:	e3580058 	cmp	r8, #88	; 0x58
   12c4c:	03877001 	orreq	r7, r7, #1
   12c50:	e3570000 	cmp	r7, #0
   12c54:	0a00022e 	beq	13514 <_nl_load_domain+0xc80>
   12c58:	e5d37004 	ldrb	r7, [r3, #4]
   12c5c:	e3570038 	cmp	r7, #56	; 0x38
   12c60:	0a0001d9 	beq	133cc <_nl_load_domain+0xb38>
   12c64:	e3570031 	cmp	r7, #49	; 0x31
   12c68:	0a0001e9 	beq	13414 <_nl_load_domain+0xb80>
   12c6c:	e3570033 	cmp	r7, #51	; 0x33
   12c70:	1a000147 	bne	13194 <_nl_load_domain+0x900>
   12c74:	e5d31005 	ldrb	r1, [r3, #5]
   12c78:	e3510032 	cmp	r1, #50	; 0x32
   12c7c:	13a01000 	movne	r1, #0
   12c80:	1affffc2 	bne	12b90 <_nl_load_domain+0x2fc>
   12c84:	e5d33006 	ldrb	r3, [r3, #6]
   12c88:	e3530000 	cmp	r3, #0
   12c8c:	1a000359 	bne	139f8 <_nl_load_domain+0x1164>
   12c90:	e35c0064 	cmp	ip, #100	; 0x64
   12c94:	0a000365 	beq	13a30 <_nl_load_domain+0x119c>
   12c98:	e59d3038 	ldr	r3, [sp, #56]	; 0x38
   12c9c:	e3530000 	cmp	r3, #0
   12ca0:	1a000364 	bne	13a38 <_nl_load_domain+0x11a4>
   12ca4:	e35c006f 	cmp	ip, #111	; 0x6f
   12ca8:	0a00037e 	beq	13aa8 <_nl_load_domain+0x1214>
   12cac:	e3560000 	cmp	r6, #0
   12cb0:	1a00038e 	bne	13af0 <_nl_load_domain+0x125c>
   12cb4:	e35c0078 	cmp	ip, #120	; 0x78
   12cb8:	0a00038a 	beq	13ae8 <_nl_load_domain+0x1254>
   12cbc:	e35c0058 	cmp	ip, #88	; 0x58
   12cc0:	1a000472 	bne	13e90 <_nl_load_domain+0x15fc>
   12cc4:	e59f1b34 	ldr	r1, [pc, #2868]	; 13800 <_nl_load_domain+0xf6c>
   12cc8:	eaffffb0 	b	12b90 <_nl_load_domain+0x2fc>
   12ccc:	e3530802 	cmp	r3, #131072	; 0x20000
   12cd0:	2a000011 	bcs	12d1c <_nl_load_domain+0x488>
   12cd4:	e28b0008 	add	r0, fp, #8
   12cd8:	e8901007 	ldm	r0, {r0, r1, r2, ip}
   12cdc:	e1a03803 	lsl	r3, r3, #16
   12ce0:	e08b1001 	add	r1, fp, r1
   12ce4:	e08b2002 	add	r2, fp, r2
   12ce8:	e35c0002 	cmp	ip, #2
   12cec:	e58dc018 	str	ip, [sp, #24]
   12cf0:	e1a03823 	lsr	r3, r3, #16
   12cf4:	e5871018 	str	r1, [r7, #24]
   12cf8:	e5870014 	str	r0, [r7, #20]
   12cfc:	e587201c 	str	r2, [r7, #28]
   12d00:	e587c02c 	str	ip, [r7, #44]	; 0x2c
   12d04:	8a000064 	bhi	12e9c <_nl_load_domain+0x608>
   12d08:	e3a02000 	mov	r2, #0
   12d0c:	e1530002 	cmp	r3, r2
   12d10:	e5879034 	str	r9, [r7, #52]	; 0x34
   12d14:	e5872030 	str	r2, [r7, #48]	; 0x30
   12d18:	0a00003d 	beq	12e14 <_nl_load_domain+0x580>
   12d1c:	e3a00000 	mov	r0, #0
   12d20:	eb005b9b 	bl	29b94 <__free>
   12d24:	e3580000 	cmp	r8, #0
   12d28:	1a000057 	bne	12e8c <_nl_load_domain+0x5f8>
   12d2c:	e1a0000b 	mov	r0, fp
   12d30:	eb005b97 	bl	29b94 <__free>
   12d34:	e1a00007 	mov	r0, r7
   12d38:	eb005b95 	bl	29b94 <__free>
   12d3c:	e3a02000 	mov	r2, #0
   12d40:	e5953004 	ldr	r3, [r5, #4]
   12d44:	e5862008 	str	r2, [r6, #8]
   12d48:	e2433001 	sub	r3, r3, #1
   12d4c:	e3a02001 	mov	r2, #1
   12d50:	e5862004 	str	r2, [r6, #4]
   12d54:	e3530000 	cmp	r3, #0
   12d58:	e5853004 	str	r3, [r5, #4]
   12d5c:	1a000010 	bne	12da4 <_nl_load_domain+0x510>
   12d60:	e5853008 	str	r3, [r5, #8]
   12d64:	e3a01000 	mov	r1, #0
   12d68:	e1a02005 	mov	r2, r5
   12d6c:	e5954000 	ldr	r4, [r5]
   12d70:	e5923000 	ldr	r3, [r2]
   12d74:	e1530004 	cmp	r3, r4
   12d78:	1a000005 	bne	12d94 <_nl_load_domain+0x500>
   12d7c:	e1a00004 	mov	r0, r4
   12d80:	e3e03a0f 	mvn	r3, #61440	; 0xf000
   12d84:	e1a0e00f 	mov	lr, pc
   12d88:	e243f03f 	sub	pc, r3, #63	; 0x3f
   12d8c:	3afffff7 	bcc	12d70 <_nl_load_domain+0x4dc>
   12d90:	e1a03004 	mov	r3, r4
   12d94:	e1540003 	cmp	r4, r3
   12d98:	1afffff1 	bne	12d64 <_nl_load_domain+0x4d0>
   12d9c:	e3540001 	cmp	r4, #1
   12da0:	ca000014 	bgt	12df8 <_nl_load_domain+0x564>
   12da4:	e59f3a30 	ldr	r3, [pc, #2608]	; 137dc <_nl_load_domain+0xf48>
   12da8:	e5932000 	ldr	r2, [r3]
   12dac:	e59d30e4 	ldr	r3, [sp, #228]	; 0xe4
   12db0:	e0332002 	eors	r2, r3, r2
   12db4:	e3a03000 	mov	r3, #0
   12db8:	1a00030b 	bne	139ec <_nl_load_domain+0x1158>
   12dbc:	e28dd0ec 	add	sp, sp, #236	; 0xec
   12dc0:	e8bd8ff0 	pop	{r4, r5, r6, r7, r8, r9, sl, fp, pc}
   12dc4:	e3700001 	cmn	r0, #1
   12dc8:	1a000005 	bne	12de4 <_nl_load_domain+0x550>
   12dcc:	ebfff81b 	bl	10e40 <__aeabi_read_tp>
   12dd0:	e59f3a10 	ldr	r3, [pc, #2576]	; 137e8 <_nl_load_domain+0xf54>
   12dd4:	e79f3003 	ldr	r3, [pc, r3]
   12dd8:	e7903003 	ldr	r3, [r0, r3]
   12ddc:	e3530004 	cmp	r3, #4
   12de0:	0a000042 	beq	12ef0 <_nl_load_domain+0x65c>
   12de4:	e1a00004 	mov	r0, r4
   12de8:	eb006f61 	bl	2eb74 <__close_nocancel>
   12dec:	e5953004 	ldr	r3, [r5, #4]
   12df0:	e2433001 	sub	r3, r3, #1
   12df4:	eaffffd4 	b	12d4c <_nl_load_domain+0x4b8>
   12df8:	e3a01081 	mov	r1, #129	; 0x81
   12dfc:	e3a02001 	mov	r2, #1
   12e00:	e3a03000 	mov	r3, #0
   12e04:	e3a070f0 	mov	r7, #240	; 0xf0
   12e08:	e59f09c8 	ldr	r0, [pc, #2504]	; 137d8 <_nl_load_domain+0xf44>
   12e0c:	ef000000 	svc	0x00000000
   12e10:	eaffffe3 	b	12da4 <_nl_load_domain+0x510>
   12e14:	e3a03000 	mov	r3, #0
   12e18:	e5873020 	str	r3, [r7, #32]
   12e1c:	e5873024 	str	r3, [r7, #36]	; 0x24
   12e20:	e5873028 	str	r3, [r7, #40]	; 0x28
   12e24:	e3a01000 	mov	r1, #0
   12e28:	e59f39bc 	ldr	r3, [pc, #2492]	; 137ec <_nl_load_domain+0xf58>
   12e2c:	e5871038 	str	r1, [r7, #56]	; 0x38
   12e30:	e1530001 	cmp	r3, r1
   12e34:	e587103c 	str	r1, [r7, #60]	; 0x3c
   12e38:	0a000001 	beq	12e44 <_nl_load_domain+0x5b0>
   12e3c:	e2870040 	add	r0, r7, #64	; 0x40
   12e40:	e1a00000 	nop			; (mov r0, r0)
   12e44:	e28d306c 	add	r3, sp, #108	; 0x6c
   12e48:	e58d3000 	str	r3, [sp]
   12e4c:	e1a00006 	mov	r0, r6
   12e50:	e3a03000 	mov	r3, #0
   12e54:	e59d100c 	ldr	r1, [sp, #12]
   12e58:	e59f2990 	ldr	r2, [pc, #2448]	; 137f0 <_nl_load_domain+0xf5c>
   12e5c:	ebfff91f 	bl	112e0 <_nl_find_msg>
   12e60:	e3700001 	cmn	r0, #1
   12e64:	0a000046 	beq	12f84 <_nl_load_domain+0x6f0>
   12e68:	e2872064 	add	r2, r7, #100	; 0x64
   12e6c:	e2871060 	add	r1, r7, #96	; 0x60
   12e70:	eb000a42 	bl	15780 <__gettext_extract_plural>
   12e74:	e5953004 	ldr	r3, [r5, #4]
   12e78:	e2433001 	sub	r3, r3, #1
   12e7c:	eaffffb2 	b	12d4c <_nl_load_domain+0x4b8>
   12e80:	e1a00005 	mov	r0, r5
   12e84:	eb0046bc 	bl	2497c <__lll_lock_wait_private>
   12e88:	eafffe9d 	b	12904 <_nl_load_domain+0x70>
   12e8c:	e1a0000b 	mov	r0, fp
   12e90:	e59d1010 	ldr	r1, [sp, #16]
   12e94:	eb0070b9 	bl	2f180 <__munmap>
   12e98:	eaffffa5 	b	12d34 <_nl_load_domain+0x4a0>
   12e9c:	e59bc018 	ldr	ip, [fp, #24]
   12ea0:	e3530000 	cmp	r3, #0
   12ea4:	e08b300c 	add	r3, fp, ip
   12ea8:	e58d302c 	str	r3, [sp, #44]	; 0x2c
   12eac:	e5873030 	str	r3, [r7, #48]	; 0x30
   12eb0:	e5879034 	str	r9, [r7, #52]	; 0x34
   12eb4:	0affffd6 	beq	12e14 <_nl_load_domain+0x580>
   12eb8:	e59b3024 	ldr	r3, [fp, #36]	; 0x24
   12ebc:	e3530000 	cmp	r3, #0
   12ec0:	e58d301c 	str	r3, [sp, #28]
   12ec4:	0affffd2 	beq	12e14 <_nl_load_domain+0x580>
   12ec8:	e59b301c 	ldr	r3, [fp, #28]
   12ecc:	e58d3028 	str	r3, [sp, #40]	; 0x28
   12ed0:	e59b3020 	ldr	r3, [fp, #32]
   12ed4:	eaffff13 	b	12b28 <_nl_load_domain+0x294>
   12ed8:	e59d0010 	ldr	r0, [sp, #16]
   12edc:	eb00599e 	bl	2955c <__libc_malloc>
   12ee0:	e250b000 	subs	fp, r0, #0
   12ee4:	0affffbe 	beq	12de4 <_nl_load_domain+0x550>
   12ee8:	e1a0900b 	mov	r9, fp
   12eec:	e59d7010 	ldr	r7, [sp, #16]
   12ef0:	e1a02007 	mov	r2, r7
   12ef4:	e1a01009 	mov	r1, r9
   12ef8:	e1a00004 	mov	r0, r4
   12efc:	eb006fd5 	bl	2ee58 <__read_nocancel>
   12f00:	e3500000 	cmp	r0, #0
   12f04:	daffffae 	ble	12dc4 <_nl_load_domain+0x530>
   12f08:	e0577000 	subs	r7, r7, r0
   12f0c:	e0899000 	add	r9, r9, r0
   12f10:	1afffff6 	bne	12ef0 <_nl_load_domain+0x65c>
   12f14:	e1a00004 	mov	r0, r4
   12f18:	eb006f15 	bl	2eb74 <__close_nocancel>
   12f1c:	e59b4000 	ldr	r4, [fp]
   12f20:	e59f38d0 	ldr	r3, [pc, #2256]	; 137f8 <_nl_load_domain+0xf64>
   12f24:	e59f28b4 	ldr	r2, [pc, #2228]	; 137e0 <_nl_load_domain+0xf4c>
   12f28:	e0549003 	subs	r9, r4, r3
   12f2c:	13a09001 	movne	r9, #1
   12f30:	e1540002 	cmp	r4, r2
   12f34:	11540003 	cmpne	r4, r3
   12f38:	0afffea8 	beq	129e0 <_nl_load_domain+0x14c>
   12f3c:	e1a0000b 	mov	r0, fp
   12f40:	eb005b13 	bl	29b94 <__free>
   12f44:	e5953004 	ldr	r3, [r5, #4]
   12f48:	e2433001 	sub	r3, r3, #1
   12f4c:	eaffff7e 	b	12d4c <_nl_load_domain+0x4b8>
   12f50:	e59d0024 	ldr	r0, [sp, #36]	; 0x24
   12f54:	e59d8020 	ldr	r8, [sp, #32]
   12f58:	e59d7030 	ldr	r7, [sp, #48]	; 0x30
   12f5c:	e59d6034 	ldr	r6, [sp, #52]	; 0x34
   12f60:	eb005b0b 	bl	29b94 <__free>
   12f64:	e3a00000 	mov	r0, #0
   12f68:	eaffff6c 	b	12d20 <_nl_load_domain+0x48c>
   12f6c:	e1a0000b 	mov	r0, fp
   12f70:	e59d1010 	ldr	r1, [sp, #16]
   12f74:	eb007081 	bl	2f180 <__munmap>
   12f78:	e5953004 	ldr	r3, [r5, #4]
   12f7c:	e2433001 	sub	r3, r3, #1
   12f80:	eaffff71 	b	12d4c <_nl_load_domain+0x4b8>
   12f84:	e59f3868 	ldr	r3, [pc, #2152]	; 137f4 <_nl_load_domain+0xf60>
   12f88:	e3530000 	cmp	r3, #0
   12f8c:	0a000001 	beq	12f98 <_nl_load_domain+0x704>
   12f90:	e2870040 	add	r0, r7, #64	; 0x40
   12f94:	e1a00000 	nop			; (mov r0, r0)
   12f98:	e5970010 	ldr	r0, [r7, #16]
   12f9c:	eaffff5f 	b	12d20 <_nl_load_domain+0x48c>
   12fa0:	e59d8020 	ldr	r8, [sp, #32]
   12fa4:	e59d7030 	ldr	r7, [sp, #48]	; 0x30
   12fa8:	e59d6034 	ldr	r6, [sp, #52]	; 0x34
   12fac:	e59f3844 	ldr	r3, [pc, #2116]	; 137f8 <_nl_load_domain+0xf64>
   12fb0:	e59b0028 	ldr	r0, [fp, #40]	; 0x28
   12fb4:	e1540003 	cmp	r4, r3
   12fb8:	e59b302c 	ldr	r3, [fp, #44]	; 0x2c
   12fbc:	0a000071 	beq	13188 <_nl_load_domain+0x8f4>
   12fc0:	e0202860 	eor	r2, r0, r0, ror #16
   12fc4:	e1a02422 	lsr	r2, r2, #8
   12fc8:	e0231863 	eor	r1, r3, r3, ror #16
   12fcc:	e3c22cff 	bic	r2, r2, #65280	; 0xff00
   12fd0:	e1a01421 	lsr	r1, r1, #8
   12fd4:	e0222460 	eor	r2, r2, r0, ror #8
   12fd8:	e3c11cff 	bic	r1, r1, #65280	; 0xff00
   12fdc:	e08b2002 	add	r2, fp, r2
   12fe0:	e58d203c 	str	r2, [sp, #60]	; 0x3c
   12fe4:	e0213463 	eor	r3, r1, r3, ror #8
   12fe8:	e3a02000 	mov	r2, #0
   12fec:	e59d1018 	ldr	r1, [sp, #24]
   12ff0:	e08b3003 	add	r3, fp, r3
   12ff4:	e1a01101 	lsl	r1, r1, #2
   12ff8:	e59d9028 	ldr	r9, [sp, #40]	; 0x28
   12ffc:	e58d8040 	str	r8, [sp, #64]	; 0x40
   13000:	e59da024 	ldr	sl, [sp, #36]	; 0x24
   13004:	e1a08002 	mov	r8, r2
   13008:	e58d1048 	str	r1, [sp, #72]	; 0x48
   1300c:	e58d3034 	str	r3, [sp, #52]	; 0x34
   13010:	e58d2030 	str	r2, [sp, #48]	; 0x30
   13014:	e58d1038 	str	r1, [sp, #56]	; 0x38
   13018:	e58db020 	str	fp, [sp, #32]
   1301c:	e58d7044 	str	r7, [sp, #68]	; 0x44
   13020:	e58d6028 	str	r6, [sp, #40]	; 0x28
   13024:	ea000024 	b	130bc <_nl_load_domain+0x828>
   13028:	e3570000 	cmp	r7, #0
   1302c:	059d303c 	ldreq	r3, [sp, #60]	; 0x3c
   13030:	159d3034 	ldrne	r3, [sp, #52]	; 0x34
   13034:	e7932108 	ldr	r2, [r3, r8, lsl #2]
   13038:	e0223862 	eor	r3, r2, r2, ror #16
   1303c:	e1a03423 	lsr	r3, r3, #8
   13040:	e3c33cff 	bic	r3, r3, #65280	; 0xff00
   13044:	e0233462 	eor	r3, r3, r2, ror #8
   13048:	e59d2020 	ldr	r2, [sp, #32]
   1304c:	e0823003 	add	r3, r2, r3
   13050:	e5931008 	ldr	r1, [r3, #8]
   13054:	e0212861 	eor	r2, r1, r1, ror #16
   13058:	e1a02422 	lsr	r2, r2, #8
   1305c:	e3c22cff 	bic	r2, r2, #65280	; 0xff00
   13060:	e0222461 	eor	r2, r2, r1, ror #8
   13064:	e2922001 	adds	r2, r2, #1
   13068:	13a02001 	movne	r2, #1
   1306c:	e3520000 	cmp	r2, #0
   13070:	01a0b002 	moveq	fp, r2
   13074:	1a000020 	bne	130fc <_nl_load_domain+0x868>
   13078:	e28d30dc 	add	r3, sp, #220	; 0xdc
   1307c:	e3570001 	cmp	r7, #1
   13080:	e783b107 	str	fp, [r3, r7, lsl #2]
   13084:	1a00001a 	bne	130f4 <_nl_load_domain+0x860>
   13088:	e59d20e0 	ldr	r2, [sp, #224]	; 0xe0
   1308c:	e59d30dc 	ldr	r3, [sp, #220]	; 0xdc
   13090:	e59d1030 	ldr	r1, [sp, #48]	; 0x30
   13094:	e0833002 	add	r3, r3, r2
   13098:	e59d2038 	ldr	r2, [sp, #56]	; 0x38
   1309c:	e2811001 	add	r1, r1, #1
   130a0:	e0823003 	add	r3, r2, r3
   130a4:	e58d1030 	str	r1, [sp, #48]	; 0x30
   130a8:	e58d3038 	str	r3, [sp, #56]	; 0x38
   130ac:	e59d301c 	ldr	r3, [sp, #28]
   130b0:	e2888001 	add	r8, r8, #1
   130b4:	e1580003 	cmp	r8, r3
   130b8:	0a0000ea 	beq	13468 <_nl_load_domain+0xbd4>
   130bc:	e3a07000 	mov	r7, #0
   130c0:	e59f3730 	ldr	r3, [pc, #1840]	; 137f8 <_nl_load_domain+0xf64>
   130c4:	e1540003 	cmp	r4, r3
   130c8:	1affffd6 	bne	13028 <_nl_load_domain+0x794>
   130cc:	e3570000 	cmp	r7, #0
   130d0:	059d303c 	ldreq	r3, [sp, #60]	; 0x3c
   130d4:	159d3034 	ldrne	r3, [sp, #52]	; 0x34
   130d8:	e59d2020 	ldr	r2, [sp, #32]
   130dc:	e7933108 	ldr	r3, [r3, r8, lsl #2]
   130e0:	e0823003 	add	r3, r2, r3
   130e4:	e5932008 	ldr	r2, [r3, #8]
   130e8:	e2922001 	adds	r2, r2, #1
   130ec:	13a02001 	movne	r2, #1
   130f0:	eaffffdd 	b	1306c <_nl_load_domain+0x7d8>
   130f4:	e3a07001 	mov	r7, #1
   130f8:	eafffff0 	b	130c0 <_nl_load_domain+0x82c>
   130fc:	e3a00000 	mov	r0, #0
   13100:	e283600c 	add	r6, r3, #12
   13104:	e1a0b000 	mov	fp, r0
   13108:	ea000005 	b	13124 <_nl_load_domain+0x890>
   1310c:	e79a0103 	ldr	r0, [sl, r3, lsl #2]
   13110:	e2866008 	add	r6, r6, #8
   13114:	e3500000 	cmp	r0, #0
   13118:	0affffe3 	beq	130ac <_nl_load_domain+0x818>
   1311c:	eb00611b 	bl	2b590 <strlen>
   13120:	e080b00b 	add	fp, r0, fp
   13124:	e59f36cc 	ldr	r3, [pc, #1740]	; 137f8 <_nl_load_domain+0xf64>
   13128:	e1540003 	cmp	r4, r3
   1312c:	e9160009 	ldmdb	r6, {r0, r3}
   13130:	10202860 	eorne	r2, r0, r0, ror #16
   13134:	10231863 	eorne	r1, r3, r3, ror #16
   13138:	11a02422 	lsrne	r2, r2, #8
   1313c:	11a01421 	lsrne	r1, r1, #8
   13140:	13c22cff 	bicne	r2, r2, #65280	; 0xff00
   13144:	13c11cff 	bicne	r1, r1, #65280	; 0xff00
   13148:	10222460 	eorne	r2, r2, r0, ror #8
   1314c:	10213463 	eorne	r3, r1, r3, ror #8
   13150:	108bb002 	addne	fp, fp, r2
   13154:	008bb000 	addeq	fp, fp, r0
   13158:	e3730001 	cmn	r3, #1
   1315c:	0affffc5 	beq	13078 <_nl_load_domain+0x7e4>
   13160:	e1530009 	cmp	r3, r9
   13164:	3affffe8 	bcc	1310c <_nl_load_domain+0x878>
   13168:	e59d0024 	ldr	r0, [sp, #36]	; 0x24
   1316c:	e59d8040 	ldr	r8, [sp, #64]	; 0x40
   13170:	e59db020 	ldr	fp, [sp, #32]
   13174:	e59d7044 	ldr	r7, [sp, #68]	; 0x44
   13178:	e59d6028 	ldr	r6, [sp, #40]	; 0x28
   1317c:	eb005a84 	bl	29b94 <__free>
   13180:	e3a00000 	mov	r0, #0
   13184:	eafffee5 	b	12d20 <_nl_load_domain+0x48c>
   13188:	e08b2000 	add	r2, fp, r0
   1318c:	e58d203c 	str	r2, [sp, #60]	; 0x3c
   13190:	eaffff94 	b	12fe8 <_nl_load_domain+0x754>
   13194:	e3570036 	cmp	r7, #54	; 0x36
   13198:	1a000015 	bne	131f4 <_nl_load_domain+0x960>
   1319c:	e5d31005 	ldrb	r1, [r3, #5]
   131a0:	e3510034 	cmp	r1, #52	; 0x34
   131a4:	13a01000 	movne	r1, #0
   131a8:	1afffe78 	bne	12b90 <_nl_load_domain+0x2fc>
   131ac:	e5d33006 	ldrb	r3, [r3, #6]
   131b0:	e3530000 	cmp	r3, #0
   131b4:	1a000211 	bne	13a00 <_nl_load_domain+0x116c>
   131b8:	e35c0064 	cmp	ip, #100	; 0x64
   131bc:	0a000219 	beq	13a28 <_nl_load_domain+0x1194>
   131c0:	e59d3038 	ldr	r3, [sp, #56]	; 0x38
   131c4:	e3530000 	cmp	r3, #0
   131c8:	1a000214 	bne	13a20 <_nl_load_domain+0x118c>
   131cc:	e35c006f 	cmp	ip, #111	; 0x6f
   131d0:	0a000232 	beq	13aa0 <_nl_load_domain+0x120c>
   131d4:	e3560000 	cmp	r6, #0
   131d8:	1a00023a 	bne	13ac8 <_nl_load_domain+0x1234>
   131dc:	e35c0078 	cmp	ip, #120	; 0x78
   131e0:	0a000236 	beq	13ac0 <_nl_load_domain+0x122c>
   131e4:	e35c0058 	cmp	ip, #88	; 0x58
   131e8:	1a000328 	bne	13e90 <_nl_load_domain+0x15fc>
   131ec:	e59f1608 	ldr	r1, [pc, #1544]	; 137fc <_nl_load_domain+0xf68>
   131f0:	eafffe66 	b	12b90 <_nl_load_domain+0x2fc>
   131f4:	e357004c 	cmp	r7, #76	; 0x4c
   131f8:	1a00002c 	bne	132b0 <_nl_load_domain+0xa1c>
   131fc:	e5d31005 	ldrb	r1, [r3, #5]
   13200:	e3510045 	cmp	r1, #69	; 0x45
   13204:	13a01000 	movne	r1, #0
   13208:	1afffe60 	bne	12b90 <_nl_load_domain+0x2fc>
   1320c:	e5d31006 	ldrb	r1, [r3, #6]
   13210:	e3510041 	cmp	r1, #65	; 0x41
   13214:	13a01000 	movne	r1, #0
   13218:	1afffe5c 	bne	12b90 <_nl_load_domain+0x2fc>
   1321c:	e5d31007 	ldrb	r1, [r3, #7]
   13220:	e3510053 	cmp	r1, #83	; 0x53
   13224:	13a01000 	movne	r1, #0
   13228:	1afffe58 	bne	12b90 <_nl_load_domain+0x2fc>
   1322c:	e5d31008 	ldrb	r1, [r3, #8]
   13230:	e3510054 	cmp	r1, #84	; 0x54
   13234:	13a01000 	movne	r1, #0
   13238:	1afffe54 	bne	12b90 <_nl_load_domain+0x2fc>
   1323c:	e5d31009 	ldrb	r1, [r3, #9]
   13240:	e3510038 	cmp	r1, #56	; 0x38
   13244:	0a00026c 	beq	13bfc <_nl_load_domain+0x1368>
   13248:	e3510031 	cmp	r1, #49	; 0x31
   1324c:	0a000254 	beq	13ba4 <_nl_load_domain+0x1310>
   13250:	e3510033 	cmp	r1, #51	; 0x33
   13254:	1a000239 	bne	13b40 <_nl_load_domain+0x12ac>
   13258:	e5d3100a 	ldrb	r1, [r3, #10]
   1325c:	e3510032 	cmp	r1, #50	; 0x32
   13260:	13a01000 	movne	r1, #0
   13264:	1afffe49 	bne	12b90 <_nl_load_domain+0x2fc>
   13268:	e5d3300b 	ldrb	r3, [r3, #11]
   1326c:	e3530000 	cmp	r3, #0
   13270:	1a000230 	bne	13b38 <_nl_load_domain+0x12a4>
   13274:	e35c0064 	cmp	ip, #100	; 0x64
   13278:	0a00022c 	beq	13b30 <_nl_load_domain+0x129c>
   1327c:	e59d3038 	ldr	r3, [sp, #56]	; 0x38
   13280:	e3530000 	cmp	r3, #0
   13284:	1a000227 	bne	13b28 <_nl_load_domain+0x1294>
   13288:	e35c006f 	cmp	ip, #111	; 0x6f
   1328c:	0a000223 	beq	13b20 <_nl_load_domain+0x128c>
   13290:	e3560000 	cmp	r6, #0
   13294:	1a00021f 	bne	13b18 <_nl_load_domain+0x1284>
   13298:	e35c0078 	cmp	ip, #120	; 0x78
   1329c:	0a00020b 	beq	13ad0 <_nl_load_domain+0x123c>
   132a0:	e35c0058 	cmp	ip, #88	; 0x58
   132a4:	1a0002f9 	bne	13e90 <_nl_load_domain+0x15fc>
   132a8:	e59f1550 	ldr	r1, [pc, #1360]	; 13800 <_nl_load_domain+0xf6c>
   132ac:	eafffe37 	b	12b90 <_nl_load_domain+0x2fc>
   132b0:	e3570046 	cmp	r7, #70	; 0x46
   132b4:	1a000028 	bne	1335c <_nl_load_domain+0xac8>
   132b8:	e5d31005 	ldrb	r1, [r3, #5]
   132bc:	e3510041 	cmp	r1, #65	; 0x41
   132c0:	13a01000 	movne	r1, #0
   132c4:	1afffe31 	bne	12b90 <_nl_load_domain+0x2fc>
   132c8:	e5d31006 	ldrb	r1, [r3, #6]
   132cc:	e3510053 	cmp	r1, #83	; 0x53
   132d0:	13a01000 	movne	r1, #0
   132d4:	1afffe2d 	bne	12b90 <_nl_load_domain+0x2fc>
   132d8:	e5d31007 	ldrb	r1, [r3, #7]
   132dc:	e3510054 	cmp	r1, #84	; 0x54
   132e0:	13a01000 	movne	r1, #0
   132e4:	1afffe29 	bne	12b90 <_nl_load_domain+0x2fc>
   132e8:	e5d31008 	ldrb	r1, [r3, #8]
   132ec:	e3510038 	cmp	r1, #56	; 0x38
   132f0:	0a0002a0 	beq	13d78 <_nl_load_domain+0x14e4>
   132f4:	e3510031 	cmp	r1, #49	; 0x31
   132f8:	0a000288 	beq	13d20 <_nl_load_domain+0x148c>
   132fc:	e3510033 	cmp	r1, #51	; 0x33
   13300:	1a00026d 	bne	13cbc <_nl_load_domain+0x1428>
   13304:	e5d31009 	ldrb	r1, [r3, #9]
   13308:	e3510032 	cmp	r1, #50	; 0x32
   1330c:	13a01000 	movne	r1, #0
   13310:	1afffe1e 	bne	12b90 <_nl_load_domain+0x2fc>
   13314:	e5d3300a 	ldrb	r3, [r3, #10]
   13318:	e3530000 	cmp	r3, #0
   1331c:	1a000264 	bne	13cb4 <_nl_load_domain+0x1420>
   13320:	e35c0064 	cmp	ip, #100	; 0x64
   13324:	0a000260 	beq	13cac <_nl_load_domain+0x1418>
   13328:	e59d3038 	ldr	r3, [sp, #56]	; 0x38
   1332c:	e3530000 	cmp	r3, #0
   13330:	1a00025b 	bne	13ca4 <_nl_load_domain+0x1410>
   13334:	e35c006f 	cmp	ip, #111	; 0x6f
   13338:	0a000257 	beq	13c9c <_nl_load_domain+0x1408>
   1333c:	e3560000 	cmp	r6, #0
   13340:	1a000253 	bne	13c94 <_nl_load_domain+0x1400>
   13344:	e35c0078 	cmp	ip, #120	; 0x78
   13348:	0a0001e2 	beq	13ad8 <_nl_load_domain+0x1244>
   1334c:	e35c0058 	cmp	ip, #88	; 0x58
   13350:	1a0002ce 	bne	13e90 <_nl_load_domain+0x15fc>
   13354:	e59f14a4 	ldr	r1, [pc, #1188]	; 13800 <_nl_load_domain+0xf6c>
   13358:	eafffe0c 	b	12b90 <_nl_load_domain+0x2fc>
   1335c:	e357004d 	cmp	r7, #77	; 0x4d
   13360:	1a00004f 	bne	134a4 <_nl_load_domain+0xc10>
   13364:	e5d31005 	ldrb	r1, [r3, #5]
   13368:	e3510041 	cmp	r1, #65	; 0x41
   1336c:	13a01000 	movne	r1, #0
   13370:	1afffe06 	bne	12b90 <_nl_load_domain+0x2fc>
   13374:	e5d31006 	ldrb	r1, [r3, #6]
   13378:	e3510058 	cmp	r1, #88	; 0x58
   1337c:	13a01000 	movne	r1, #0
   13380:	1afffe02 	bne	12b90 <_nl_load_domain+0x2fc>
   13384:	e5d33007 	ldrb	r3, [r3, #7]
   13388:	e3530000 	cmp	r3, #0
   1338c:	1a0001ab 	bne	13a40 <_nl_load_domain+0x11ac>
   13390:	e35c0064 	cmp	ip, #100	; 0x64
   13394:	0a0001c7 	beq	13ab8 <_nl_load_domain+0x1224>
   13398:	e59d3038 	ldr	r3, [sp, #56]	; 0x38
   1339c:	e3530000 	cmp	r3, #0
   133a0:	1a0001c2 	bne	13ab0 <_nl_load_domain+0x121c>
   133a4:	e35c006f 	cmp	ip, #111	; 0x6f
   133a8:	0a0001d8 	beq	13b10 <_nl_load_domain+0x127c>
   133ac:	e3560000 	cmp	r6, #0
   133b0:	1a0001d4 	bne	13b08 <_nl_load_domain+0x1274>
   133b4:	e35c0078 	cmp	ip, #120	; 0x78
   133b8:	0a0001b0 	beq	13a80 <_nl_load_domain+0x11ec>
   133bc:	e35c0058 	cmp	ip, #88	; 0x58
   133c0:	1a0002b2 	bne	13e90 <_nl_load_domain+0x15fc>
   133c4:	e59f1430 	ldr	r1, [pc, #1072]	; 137fc <_nl_load_domain+0xf68>
   133c8:	eafffdf0 	b	12b90 <_nl_load_domain+0x2fc>
   133cc:	e5d33005 	ldrb	r3, [r3, #5]
   133d0:	e3530000 	cmp	r3, #0
   133d4:	1afffded 	bne	12b90 <_nl_load_domain+0x2fc>
   133d8:	e35c0064 	cmp	ip, #100	; 0x64
   133dc:	0a000183 	beq	139f0 <_nl_load_domain+0x115c>
   133e0:	e59d3038 	ldr	r3, [sp, #56]	; 0x38
   133e4:	e3530000 	cmp	r3, #0
   133e8:	1a000186 	bne	13a08 <_nl_load_domain+0x1174>
   133ec:	e35c006f 	cmp	ip, #111	; 0x6f
   133f0:	0a000188 	beq	13a18 <_nl_load_domain+0x1184>
   133f4:	e3560000 	cmp	r6, #0
   133f8:	1a000192 	bne	13a48 <_nl_load_domain+0x11b4>
   133fc:	e35c0078 	cmp	ip, #120	; 0x78
   13400:	0a000182 	beq	13a10 <_nl_load_domain+0x117c>
   13404:	e35c0058 	cmp	ip, #88	; 0x58
   13408:	1a0002a0 	bne	13e90 <_nl_load_domain+0x15fc>
   1340c:	e59f13ec 	ldr	r1, [pc, #1004]	; 13800 <_nl_load_domain+0xf6c>
   13410:	eafffdde 	b	12b90 <_nl_load_domain+0x2fc>
   13414:	e5d37005 	ldrb	r7, [r3, #5]
   13418:	e3570036 	cmp	r7, #54	; 0x36
   1341c:	1afffddb 	bne	12b90 <_nl_load_domain+0x2fc>
   13420:	e5d33006 	ldrb	r3, [r3, #6]
   13424:	e3530000 	cmp	r3, #0
   13428:	1a00016d 	bne	139e4 <_nl_load_domain+0x1150>
   1342c:	e35c0064 	cmp	ip, #100	; 0x64
   13430:	0a000188 	beq	13a58 <_nl_load_domain+0x11c4>
   13434:	e59d3038 	ldr	r3, [sp, #56]	; 0x38
   13438:	e3530000 	cmp	r3, #0
   1343c:	1a000183 	bne	13a50 <_nl_load_domain+0x11bc>
   13440:	e35c006f 	cmp	ip, #111	; 0x6f
   13444:	0a0001a5 	beq	13ae0 <_nl_load_domain+0x124c>
   13448:	e3560000 	cmp	r6, #0
   1344c:	1a0001ab 	bne	13b00 <_nl_load_domain+0x126c>
   13450:	e35c0078 	cmp	ip, #120	; 0x78
   13454:	0a0001a7 	beq	13af8 <_nl_load_domain+0x1264>
   13458:	e35c0058 	cmp	ip, #88	; 0x58
   1345c:	1a00028b 	bne	13e90 <_nl_load_domain+0x15fc>
   13460:	e59f1398 	ldr	r1, [pc, #920]	; 13800 <_nl_load_domain+0xf6c>
   13464:	eafffdc9 	b	12b90 <_nl_load_domain+0x2fc>
   13468:	e59d9030 	ldr	r9, [sp, #48]	; 0x30
   1346c:	e59d7044 	ldr	r7, [sp, #68]	; 0x44
   13470:	e3590000 	cmp	r9, #0
   13474:	e58d8044 	str	r8, [sp, #68]	; 0x44
   13478:	e59db020 	ldr	fp, [sp, #32]
   1347c:	e59d8040 	ldr	r8, [sp, #64]	; 0x40
   13480:	e59d6028 	ldr	r6, [sp, #40]	; 0x28
   13484:	1a000024 	bne	1351c <_nl_load_domain+0xc88>
   13488:	e59d3030 	ldr	r3, [sp, #48]	; 0x30
   1348c:	e5873020 	str	r3, [r7, #32]
   13490:	e5873024 	str	r3, [r7, #36]	; 0x24
   13494:	e5873028 	str	r3, [r7, #40]	; 0x28
   13498:	e59d0024 	ldr	r0, [sp, #36]	; 0x24
   1349c:	eb0059bc 	bl	29b94 <__free>
   134a0:	eafffe5f 	b	12e24 <_nl_load_domain+0x590>
   134a4:	e3570050 	cmp	r7, #80	; 0x50
   134a8:	1a00016e 	bne	13a68 <_nl_load_domain+0x11d4>
   134ac:	e5d31005 	ldrb	r1, [r3, #5]
   134b0:	e3510054 	cmp	r1, #84	; 0x54
   134b4:	13a01000 	movne	r1, #0
   134b8:	1afffdb4 	bne	12b90 <_nl_load_domain+0x2fc>
   134bc:	e5d31006 	ldrb	r1, [r3, #6]
   134c0:	e3510052 	cmp	r1, #82	; 0x52
   134c4:	13a01000 	movne	r1, #0
   134c8:	1afffdb0 	bne	12b90 <_nl_load_domain+0x2fc>
   134cc:	e5d33007 	ldrb	r3, [r3, #7]
   134d0:	e3530000 	cmp	r3, #0
   134d4:	1a000161 	bne	13a60 <_nl_load_domain+0x11cc>
   134d8:	e35c0064 	cmp	ip, #100	; 0x64
   134dc:	0a000165 	beq	13a78 <_nl_load_domain+0x11e4>
   134e0:	e59d3038 	ldr	r3, [sp, #56]	; 0x38
   134e4:	e3530000 	cmp	r3, #0
   134e8:	1a000160 	bne	13a70 <_nl_load_domain+0x11dc>
   134ec:	e35c006f 	cmp	ip, #111	; 0x6f
   134f0:	0a000168 	beq	13a98 <_nl_load_domain+0x1204>
   134f4:	e3560000 	cmp	r6, #0
   134f8:	1a000164 	bne	13a90 <_nl_load_domain+0x11fc>
   134fc:	e35c0078 	cmp	ip, #120	; 0x78
   13500:	0a000160 	beq	13a88 <_nl_load_domain+0x11f4>
   13504:	e35c0058 	cmp	ip, #88	; 0x58
   13508:	1a000260 	bne	13e90 <_nl_load_domain+0x15fc>
   1350c:	e59f12ec 	ldr	r1, [pc, #748]	; 13800 <_nl_load_domain+0xf6c>
   13510:	eafffd9e 	b	12b90 <_nl_load_domain+0x2fc>
   13514:	e1a01007 	mov	r1, r7
   13518:	eafffd9c 	b	12b90 <_nl_load_domain+0x2fc>
   1351c:	e59d2038 	ldr	r2, [sp, #56]	; 0x38
   13520:	e0820209 	add	r0, r2, r9, lsl #4
   13524:	eb00580c 	bl	2955c <__libc_malloc>
   13528:	e2502000 	subs	r2, r0, #0
   1352c:	e58d2040 	str	r2, [sp, #64]	; 0x40
   13530:	0afffdf9 	beq	12d1c <_nl_load_domain+0x488>
   13534:	e59d3034 	ldr	r3, [sp, #52]	; 0x34
   13538:	e59d103c 	ldr	r1, [sp, #60]	; 0x3c
   1353c:	e58d301c 	str	r3, [sp, #28]
   13540:	e3a03000 	mov	r3, #0
   13544:	e58d3038 	str	r3, [sp, #56]	; 0x38
   13548:	e1a03009 	mov	r3, r9
   1354c:	e59d0044 	ldr	r0, [sp, #68]	; 0x44
   13550:	e58d1020 	str	r1, [sp, #32]
   13554:	e0811100 	add	r1, r1, r0, lsl #2
   13558:	e58d1050 	str	r1, [sp, #80]	; 0x50
   1355c:	e59d1048 	ldr	r1, [sp, #72]	; 0x48
   13560:	e082a209 	add	sl, r2, r9, lsl #4
   13564:	e0823183 	add	r3, r2, r3, lsl #3
   13568:	e08a1001 	add	r1, sl, r1
   1356c:	e58d304c 	str	r3, [sp, #76]	; 0x4c
   13570:	e1a0300b 	mov	r3, fp
   13574:	e1a0b001 	mov	fp, r1
   13578:	e58d8054 	str	r8, [sp, #84]	; 0x54
   1357c:	e59f9274 	ldr	r9, [pc, #628]	; 137f8 <_nl_load_domain+0xf64>
   13580:	e59d8024 	ldr	r8, [sp, #36]	; 0x24
   13584:	e5872010 	str	r2, [r7, #16]
   13588:	e58d7058 	str	r7, [sp, #88]	; 0x58
   1358c:	e58da05c 	str	sl, [sp, #92]	; 0x5c
   13590:	e58d6060 	str	r6, [sp, #96]	; 0x60
   13594:	e3a0c000 	mov	ip, #0
   13598:	e1540009 	cmp	r4, r9
   1359c:	0a000080 	beq	137a4 <_nl_load_domain+0xf10>
   135a0:	e35c0000 	cmp	ip, #0
   135a4:	059d2020 	ldreq	r2, [sp, #32]
   135a8:	159d201c 	ldrne	r2, [sp, #28]
   135ac:	e5921000 	ldr	r1, [r2]
   135b0:	e0212861 	eor	r2, r1, r1, ror #16
   135b4:	e1a02422 	lsr	r2, r2, #8
   135b8:	e3c22cff 	bic	r2, r2, #65280	; 0xff00
   135bc:	e0222461 	eor	r2, r2, r1, ror #8
   135c0:	e0832002 	add	r2, r3, r2
   135c4:	e5920008 	ldr	r0, [r2, #8]
   135c8:	e0201860 	eor	r1, r0, r0, ror #16
   135cc:	e1a01421 	lsr	r1, r1, #8
   135d0:	e3c11cff 	bic	r1, r1, #65280	; 0xff00
   135d4:	e0211460 	eor	r1, r1, r0, ror #8
   135d8:	e2911001 	adds	r1, r1, #1
   135dc:	13a01001 	movne	r1, #1
   135e0:	e3510000 	cmp	r1, #0
   135e4:	1a000079 	bne	137d0 <_nl_load_domain+0xf3c>
   135e8:	e35c0001 	cmp	ip, #1
   135ec:	1a000075 	bne	137c8 <_nl_load_domain+0xf34>
   135f0:	e59d2038 	ldr	r2, [sp, #56]	; 0x38
   135f4:	e59d1040 	ldr	r1, [sp, #64]	; 0x40
   135f8:	e1540009 	cmp	r4, r9
   135fc:	e0811182 	add	r1, r1, r2, lsl #3
   13600:	e58d1048 	str	r1, [sp, #72]	; 0x48
   13604:	e59d104c 	ldr	r1, [sp, #76]	; 0x4c
   13608:	e58d8028 	str	r8, [sp, #40]	; 0x28
   1360c:	e0812182 	add	r2, r1, r2, lsl #3
   13610:	e58d2044 	str	r2, [sp, #68]	; 0x44
   13614:	e3a02000 	mov	r2, #0
   13618:	e58d2034 	str	r2, [sp, #52]	; 0x34
   1361c:	e1a08003 	mov	r8, r3
   13620:	e59d3034 	ldr	r3, [sp, #52]	; 0x34
   13624:	0a000028 	beq	136cc <_nl_load_domain+0xe38>
   13628:	e3530000 	cmp	r3, #0
   1362c:	059d3020 	ldreq	r3, [sp, #32]
   13630:	159d301c 	ldrne	r3, [sp, #28]
   13634:	05936000 	ldreq	r6, [r3]
   13638:	15936000 	ldrne	r6, [r3]
   1363c:	059d3048 	ldreq	r3, [sp, #72]	; 0x48
   13640:	e0262866 	eor	r2, r6, r6, ror #16
   13644:	e1a02422 	lsr	r2, r2, #8
   13648:	e3c22cff 	bic	r2, r2, #65280	; 0xff00
   1364c:	e0226466 	eor	r6, r2, r6, ror #8
   13650:	e798a006 	ldr	sl, [r8, r6]
   13654:	e0886006 	add	r6, r8, r6
   13658:	e02a286a 	eor	r2, sl, sl, ror #16
   1365c:	e1a02422 	lsr	r2, r2, #8
   13660:	e5960008 	ldr	r0, [r6, #8]
   13664:	e3c22cff 	bic	r2, r2, #65280	; 0xff00
   13668:	e022246a 	eor	r2, r2, sl, ror #8
   1366c:	e088a002 	add	sl, r8, r2
   13670:	e0202860 	eor	r2, r0, r0, ror #16
   13674:	e1a02422 	lsr	r2, r2, #8
   13678:	e3c22cff 	bic	r2, r2, #65280	; 0xff00
   1367c:	159d3044 	ldrne	r3, [sp, #68]	; 0x44
   13680:	e0222460 	eor	r2, r2, r0, ror #8
   13684:	e3720001 	cmn	r2, #1
   13688:	e5961004 	ldr	r1, [r6, #4]
   1368c:	e58d303c 	str	r3, [sp, #60]	; 0x3c
   13690:	1a00001c 	bne	13708 <_nl_load_domain+0xe74>
   13694:	e0212861 	eor	r2, r1, r1, ror #16
   13698:	e1a02422 	lsr	r2, r2, #8
   1369c:	e3c22cff 	bic	r2, r2, #65280	; 0xff00
   136a0:	e0222461 	eor	r2, r2, r1, ror #8
   136a4:	e59d303c 	ldr	r3, [sp, #60]	; 0x3c
   136a8:	e8830404 	stm	r3, {r2, sl}
   136ac:	e59d3034 	ldr	r3, [sp, #52]	; 0x34
   136b0:	e3530001 	cmp	r3, #1
   136b4:	0a0000be 	beq	139b4 <_nl_load_domain+0x1120>
   136b8:	e3a03001 	mov	r3, #1
   136bc:	e1540009 	cmp	r4, r9
   136c0:	e58d3034 	str	r3, [sp, #52]	; 0x34
   136c4:	e59d3034 	ldr	r3, [sp, #52]	; 0x34
   136c8:	1affffd6 	bne	13628 <_nl_load_domain+0xd94>
   136cc:	e3530000 	cmp	r3, #0
   136d0:	059d3020 	ldreq	r3, [sp, #32]
   136d4:	159d301c 	ldrne	r3, [sp, #28]
   136d8:	05936000 	ldreq	r6, [r3]
   136dc:	15936000 	ldrne	r6, [r3]
   136e0:	059d3048 	ldreq	r3, [sp, #72]	; 0x48
   136e4:	e798a006 	ldr	sl, [r8, r6]
   136e8:	e0886006 	add	r6, r8, r6
   136ec:	e5961008 	ldr	r1, [r6, #8]
   136f0:	159d3044 	ldrne	r3, [sp, #68]	; 0x44
   136f4:	e3710001 	cmn	r1, #1
   136f8:	e5962004 	ldr	r2, [r6, #4]
   136fc:	e58d303c 	str	r3, [sp, #60]	; 0x3c
   13700:	e088a00a 	add	sl, r8, sl
   13704:	0affffe6 	beq	136a4 <_nl_load_domain+0xe10>
   13708:	e59d303c 	ldr	r3, [sp, #60]	; 0x3c
   1370c:	e286600c 	add	r6, r6, #12
   13710:	e583b004 	str	fp, [r3, #4]
   13714:	e58d8064 	str	r8, [sp, #100]	; 0x64
   13718:	ea00000c 	b	13750 <_nl_load_domain+0xebc>
   1371c:	e3770001 	cmn	r7, #1
   13720:	e2866008 	add	r6, r6, #8
   13724:	0a0000a8 	beq	139cc <_nl_load_domain+0x1138>
   13728:	e59d3028 	ldr	r3, [sp, #40]	; 0x28
   1372c:	e7938107 	ldr	r8, [r3, r7, lsl #2]
   13730:	e1a00008 	mov	r0, r8
   13734:	eb005f95 	bl	2b590 <strlen>
   13738:	e1a01008 	mov	r1, r8
   1373c:	e1a07000 	mov	r7, r0
   13740:	e1a02000 	mov	r2, r0
   13744:	e1a0000b 	mov	r0, fp
   13748:	eb0063ec 	bl	2c700 <memcpy>
   1374c:	e08bb007 	add	fp, fp, r7
   13750:	e1540009 	cmp	r4, r9
   13754:	e5168008 	ldr	r8, [r6, #-8]
   13758:	e5167004 	ldr	r7, [r6, #-4]
   1375c:	0a000007 	beq	13780 <_nl_load_domain+0xeec>
   13760:	e0280868 	eor	r0, r8, r8, ror #16
   13764:	e0271867 	eor	r1, r7, r7, ror #16
   13768:	e1a00420 	lsr	r0, r0, #8
   1376c:	e1a01421 	lsr	r1, r1, #8
   13770:	e3c00cff 	bic	r0, r0, #65280	; 0xff00
   13774:	e3c11cff 	bic	r1, r1, #65280	; 0xff00
   13778:	e0208468 	eor	r8, r0, r8, ror #8
   1377c:	e0217467 	eor	r7, r1, r7, ror #8
   13780:	e3580000 	cmp	r8, #0
   13784:	0affffe4 	beq	1371c <_nl_load_domain+0xe88>
   13788:	e1a0100a 	mov	r1, sl
   1378c:	e1a0000b 	mov	r0, fp
   13790:	e1a02008 	mov	r2, r8
   13794:	eb0063d9 	bl	2c700 <memcpy>
   13798:	e08aa008 	add	sl, sl, r8
   1379c:	e08bb008 	add	fp, fp, r8
   137a0:	eaffffdd 	b	1371c <_nl_load_domain+0xe88>
   137a4:	e35c0000 	cmp	ip, #0
   137a8:	059d2020 	ldreq	r2, [sp, #32]
   137ac:	159d201c 	ldrne	r2, [sp, #28]
   137b0:	e5922000 	ldr	r2, [r2]
   137b4:	e0832002 	add	r2, r3, r2
   137b8:	e5921008 	ldr	r1, [r2, #8]
   137bc:	e2911001 	adds	r1, r1, #1
   137c0:	13a01001 	movne	r1, #1
   137c4:	eaffff85 	b	135e0 <_nl_load_domain+0xd4c>
   137c8:	e3a0c001 	mov	ip, #1
   137cc:	eaffff71 	b	13598 <_nl_load_domain+0xd04>
   137d0:	e2822004 	add	r2, r2, #4
   137d4:	ea000015 	b	13830 <_nl_load_domain+0xf9c>
   137d8:	0008b11c 	.word	0x0008b11c
   137dc:	00061a74 	.word	0x00061a74
   137e0:	de120495 	.word	0xde120495
   137e4:	00061a70 	.word	0x00061a70
   137e8:	0007726c 	.word	0x0007726c
   137ec:	00000000 	.word	0x00000000
   137f0:	00075750 	.word	0x00075750
   137f4:	00000000 	.word	0x00000000
   137f8:	950412de 	.word	0x950412de
   137fc:	00061a68 	.word	0x00061a68
   13800:	00061eb8 	.word	0x00061eb8
   13804:	00061a60 	.word	0x00061a60
   13808:	00061a54 	.word	0x00061a54
   1380c:	00061a64 	.word	0x00061a64
   13810:	00061a6c 	.word	0x00061a6c
   13814:	00061a5c 	.word	0x00061a5c
   13818:	00063c84 	.word	0x00063c84
   1381c:	00061a58 	.word	0x00061a58
   13820:	00063a68 	.word	0x00063a68
   13824:	0007554c 	.word	0x0007554c
   13828:	0007500c 	.word	0x0007500c
   1382c:	e2822008 	add	r2, r2, #8
   13830:	e5921004 	ldr	r1, [r2, #4]
   13834:	e1540009 	cmp	r4, r9
   13838:	10210861 	eorne	r0, r1, r1, ror #16
   1383c:	11a00420 	lsrne	r0, r0, #8
   13840:	13c00cff 	bicne	r0, r0, #65280	; 0xff00
   13844:	10201461 	eorne	r1, r0, r1, ror #8
   13848:	e3710001 	cmn	r1, #1
   1384c:	0affff65 	beq	135e8 <_nl_load_domain+0xd54>
   13850:	e7981101 	ldr	r1, [r8, r1, lsl #2]
   13854:	e3510000 	cmp	r1, #0
   13858:	1afffff3 	bne	1382c <_nl_load_domain+0xf98>
   1385c:	e59d2020 	ldr	r2, [sp, #32]
   13860:	e59d1050 	ldr	r1, [sp, #80]	; 0x50
   13864:	e2822004 	add	r2, r2, #4
   13868:	e58d2020 	str	r2, [sp, #32]
   1386c:	e1510002 	cmp	r1, r2
   13870:	e59d201c 	ldr	r2, [sp, #28]
   13874:	e2822004 	add	r2, r2, #4
   13878:	e58d201c 	str	r2, [sp, #28]
   1387c:	1affff44 	bne	13594 <_nl_load_domain+0xd00>
   13880:	e1a0b003 	mov	fp, r3
   13884:	e59d2038 	ldr	r2, [sp, #56]	; 0x38
   13888:	e59d3030 	ldr	r3, [sp, #48]	; 0x30
   1388c:	e59d8054 	ldr	r8, [sp, #84]	; 0x54
   13890:	e1530002 	cmp	r3, r2
   13894:	e59d7058 	ldr	r7, [sp, #88]	; 0x58
   13898:	e59da05c 	ldr	sl, [sp, #92]	; 0x5c
   1389c:	e59d6060 	ldr	r6, [sp, #96]	; 0x60
   138a0:	1a00017a 	bne	13e90 <_nl_load_domain+0x15fc>
   138a4:	e3a02000 	mov	r2, #0
   138a8:	e59d302c 	ldr	r3, [sp, #44]	; 0x2c
   138ac:	e51fe0bc 	ldr	lr, [pc, #-188]	; 137f8 <_nl_load_domain+0xf64>
   138b0:	e59d9018 	ldr	r9, [sp, #24]
   138b4:	e243c004 	sub	ip, r3, #4
   138b8:	e24a0004 	sub	r0, sl, #4
   138bc:	e5bc3004 	ldr	r3, [ip, #4]!
   138c0:	e154000e 	cmp	r4, lr
   138c4:	10231863 	eorne	r1, r3, r3, ror #16
   138c8:	11a01421 	lsrne	r1, r1, #8
   138cc:	13c11cff 	bicne	r1, r1, #65280	; 0xff00
   138d0:	e2822001 	add	r2, r2, #1
   138d4:	10213463 	eorne	r3, r1, r3, ror #8
   138d8:	e1520009 	cmp	r2, r9
   138dc:	e5a03004 	str	r3, [r0, #4]!
   138e0:	3afffff5 	bcc	138bc <_nl_load_domain+0x1028>
   138e4:	e59d3040 	ldr	r3, [sp, #64]	; 0x40
   138e8:	e58db01c 	str	fp, [sp, #28]
   138ec:	e2833004 	add	r3, r3, #4
   138f0:	e3a09000 	mov	r9, #0
   138f4:	e1a0b003 	mov	fp, r3
   138f8:	e58d8018 	str	r8, [sp, #24]
   138fc:	e58d6020 	str	r6, [sp, #32]
   13900:	e79b0189 	ldr	r0, [fp, r9, lsl #3]
   13904:	eb0007e5 	bl	158a0 <__hash_string>
   13908:	e597602c 	ldr	r6, [r7, #44]	; 0x2c
   1390c:	e1a08000 	mov	r8, r0
   13910:	e1a01006 	mov	r1, r6
   13914:	eb012ce9 	bl	5ecc0 <__aeabi_uidivmod>
   13918:	e1a04001 	mov	r4, r1
   1391c:	e1a00008 	mov	r0, r8
   13920:	e2461002 	sub	r1, r6, #2
   13924:	eb012ce5 	bl	5ecc0 <__aeabi_uidivmod>
   13928:	e79a2104 	ldr	r2, [sl, r4, lsl #2]
   1392c:	e281c001 	add	ip, r1, #1
   13930:	e3520000 	cmp	r2, #0
   13934:	1046000c 	subne	r0, r6, ip
   13938:	e08a1104 	add	r1, sl, r4, lsl #2
   1393c:	104c6006 	subne	r6, ip, r6
   13940:	0a000006 	beq	13960 <_nl_load_domain+0x10cc>
   13944:	e1500004 	cmp	r0, r4
   13948:	90844006 	addls	r4, r4, r6
   1394c:	8084400c 	addhi	r4, r4, ip
   13950:	e79a3104 	ldr	r3, [sl, r4, lsl #2]
   13954:	e08a1104 	add	r1, sl, r4, lsl #2
   13958:	e3530000 	cmp	r3, #0
   1395c:	1afffff8 	bne	13944 <_nl_load_domain+0x10b0>
   13960:	e5972014 	ldr	r2, [r7, #20]
   13964:	e59d3030 	ldr	r3, [sp, #48]	; 0x30
   13968:	e2822001 	add	r2, r2, #1
   1396c:	e0822009 	add	r2, r2, r9
   13970:	e2899001 	add	r9, r9, #1
   13974:	e1530009 	cmp	r3, r9
   13978:	e5812000 	str	r2, [r1]
   1397c:	1affffdf 	bne	13900 <_nl_load_domain+0x106c>
   13980:	e3a03000 	mov	r3, #0
   13984:	e59d2030 	ldr	r2, [sp, #48]	; 0x30
   13988:	e59d8018 	ldr	r8, [sp, #24]
   1398c:	e5872020 	str	r2, [r7, #32]
   13990:	e59d2040 	ldr	r2, [sp, #64]	; 0x40
   13994:	e59db01c 	ldr	fp, [sp, #28]
   13998:	e5872024 	str	r2, [r7, #36]	; 0x24
   1399c:	e59d204c 	ldr	r2, [sp, #76]	; 0x4c
   139a0:	e59d6020 	ldr	r6, [sp, #32]
   139a4:	e5872028 	str	r2, [r7, #40]	; 0x28
   139a8:	e587a030 	str	sl, [r7, #48]	; 0x30
   139ac:	e5873034 	str	r3, [r7, #52]	; 0x34
   139b0:	eafffeb8 	b	13498 <_nl_load_domain+0xc04>
   139b4:	e59d2038 	ldr	r2, [sp, #56]	; 0x38
   139b8:	e1a03008 	mov	r3, r8
   139bc:	e2822001 	add	r2, r2, #1
   139c0:	e59d8028 	ldr	r8, [sp, #40]	; 0x28
   139c4:	e58d2038 	str	r2, [sp, #56]	; 0x38
   139c8:	eaffffa3 	b	1385c <_nl_load_domain+0xfc8>
   139cc:	e59d303c 	ldr	r3, [sp, #60]	; 0x3c
   139d0:	e59d8064 	ldr	r8, [sp, #100]	; 0x64
   139d4:	e5932004 	ldr	r2, [r3, #4]
   139d8:	e04b2002 	sub	r2, fp, r2
   139dc:	e5832000 	str	r2, [r3]
   139e0:	eaffff31 	b	136ac <_nl_load_domain+0xe18>
   139e4:	e3a01000 	mov	r1, #0
   139e8:	eafffc68 	b	12b90 <_nl_load_domain+0x2fc>
   139ec:	eb00730e 	bl	3062c <__stack_chk_fail>
   139f0:	e51f11d0 	ldr	r1, [pc, #-464]	; 13828 <_nl_load_domain+0xf94>
   139f4:	eafffc65 	b	12b90 <_nl_load_domain+0x2fc>
   139f8:	e3a01000 	mov	r1, #0
   139fc:	eafffc63 	b	12b90 <_nl_load_domain+0x2fc>
   13a00:	e3a01000 	mov	r1, #0
   13a04:	eafffc61 	b	12b90 <_nl_load_domain+0x2fc>
   13a08:	e51f11ec 	ldr	r1, [pc, #-492]	; 13824 <_nl_load_domain+0xf90>
   13a0c:	eafffc5f 	b	12b90 <_nl_load_domain+0x2fc>
   13a10:	e51f1200 	ldr	r1, [pc, #-512]	; 13818 <_nl_load_domain+0xf84>
   13a14:	eafffc5d 	b	12b90 <_nl_load_domain+0x2fc>
   13a18:	e51f1200 	ldr	r1, [pc, #-512]	; 13820 <_nl_load_domain+0xf8c>
   13a1c:	eafffc5b 	b	12b90 <_nl_load_domain+0x2fc>
   13a20:	e51f1220 	ldr	r1, [pc, #-544]	; 13808 <_nl_load_domain+0xf74>
   13a24:	eafffc59 	b	12b90 <_nl_load_domain+0x2fc>
   13a28:	e51f1224 	ldr	r1, [pc, #-548]	; 1380c <_nl_load_domain+0xf78>
   13a2c:	eafffc57 	b	12b90 <_nl_load_domain+0x2fc>
   13a30:	e51f1210 	ldr	r1, [pc, #-528]	; 13828 <_nl_load_domain+0xf94>
   13a34:	eafffc55 	b	12b90 <_nl_load_domain+0x2fc>
   13a38:	e51f121c 	ldr	r1, [pc, #-540]	; 13824 <_nl_load_domain+0xf90>
   13a3c:	eafffc53 	b	12b90 <_nl_load_domain+0x2fc>
   13a40:	e3a01000 	mov	r1, #0
   13a44:	eafffc51 	b	12b90 <_nl_load_domain+0x2fc>
   13a48:	e51f1234 	ldr	r1, [pc, #-564]	; 1381c <_nl_load_domain+0xf88>
   13a4c:	eafffc4f 	b	12b90 <_nl_load_domain+0x2fc>
   13a50:	e51f1234 	ldr	r1, [pc, #-564]	; 13824 <_nl_load_domain+0xf90>
   13a54:	eafffc4d 	b	12b90 <_nl_load_domain+0x2fc>
   13a58:	e51f1238 	ldr	r1, [pc, #-568]	; 13828 <_nl_load_domain+0xf94>
   13a5c:	eafffc4b 	b	12b90 <_nl_load_domain+0x2fc>
   13a60:	e3a01000 	mov	r1, #0
   13a64:	eafffc49 	b	12b90 <_nl_load_domain+0x2fc>
   13a68:	e3a01000 	mov	r1, #0
   13a6c:	eafffc47 	b	12b90 <_nl_load_domain+0x2fc>
   13a70:	e51f1254 	ldr	r1, [pc, #-596]	; 13824 <_nl_load_domain+0xf90>
   13a74:	eafffc45 	b	12b90 <_nl_load_domain+0x2fc>
   13a78:	e51f1258 	ldr	r1, [pc, #-600]	; 13828 <_nl_load_domain+0xf94>
   13a7c:	eafffc43 	b	12b90 <_nl_load_domain+0x2fc>
   13a80:	e51f1278 	ldr	r1, [pc, #-632]	; 13810 <_nl_load_domain+0xf7c>
   13a84:	eafffc41 	b	12b90 <_nl_load_domain+0x2fc>
   13a88:	e51f1278 	ldr	r1, [pc, #-632]	; 13818 <_nl_load_domain+0xf84>
   13a8c:	eafffc3f 	b	12b90 <_nl_load_domain+0x2fc>
   13a90:	e51f127c 	ldr	r1, [pc, #-636]	; 1381c <_nl_load_domain+0xf88>
   13a94:	eafffc3d 	b	12b90 <_nl_load_domain+0x2fc>
   13a98:	e51f1280 	ldr	r1, [pc, #-640]	; 13820 <_nl_load_domain+0xf8c>
   13a9c:	eafffc3b 	b	12b90 <_nl_load_domain+0x2fc>
   13aa0:	e51f12a4 	ldr	r1, [pc, #-676]	; 13804 <_nl_load_domain+0xf70>
   13aa4:	eafffc39 	b	12b90 <_nl_load_domain+0x2fc>
   13aa8:	e51f1290 	ldr	r1, [pc, #-656]	; 13820 <_nl_load_domain+0xf8c>
   13aac:	eafffc37 	b	12b90 <_nl_load_domain+0x2fc>
   13ab0:	e51f12b0 	ldr	r1, [pc, #-688]	; 13808 <_nl_load_domain+0xf74>
   13ab4:	eafffc35 	b	12b90 <_nl_load_domain+0x2fc>
   13ab8:	e51f12b4 	ldr	r1, [pc, #-692]	; 1380c <_nl_load_domain+0xf78>
   13abc:	eafffc33 	b	12b90 <_nl_load_domain+0x2fc>
   13ac0:	e51f12b8 	ldr	r1, [pc, #-696]	; 13810 <_nl_load_domain+0xf7c>
   13ac4:	eafffc31 	b	12b90 <_nl_load_domain+0x2fc>
   13ac8:	e51f12bc 	ldr	r1, [pc, #-700]	; 13814 <_nl_load_domain+0xf80>
   13acc:	eafffc2f 	b	12b90 <_nl_load_domain+0x2fc>
   13ad0:	e51f12c0 	ldr	r1, [pc, #-704]	; 13818 <_nl_load_domain+0xf84>
   13ad4:	eafffc2d 	b	12b90 <_nl_load_domain+0x2fc>
   13ad8:	e51f12c8 	ldr	r1, [pc, #-712]	; 13818 <_nl_load_domain+0xf84>
   13adc:	eafffc2b 	b	12b90 <_nl_load_domain+0x2fc>
   13ae0:	e51f12c8 	ldr	r1, [pc, #-712]	; 13820 <_nl_load_domain+0xf8c>
   13ae4:	eafffc29 	b	12b90 <_nl_load_domain+0x2fc>
   13ae8:	e51f12d8 	ldr	r1, [pc, #-728]	; 13818 <_nl_load_domain+0xf84>
   13aec:	eafffc27 	b	12b90 <_nl_load_domain+0x2fc>
   13af0:	e51f12dc 	ldr	r1, [pc, #-732]	; 1381c <_nl_load_domain+0xf88>
   13af4:	eafffc25 	b	12b90 <_nl_load_domain+0x2fc>
   13af8:	e51f12e8 	ldr	r1, [pc, #-744]	; 13818 <_nl_load_domain+0xf84>
   13afc:	eafffc23 	b	12b90 <_nl_load_domain+0x2fc>
   13b00:	e51f12ec 	ldr	r1, [pc, #-748]	; 1381c <_nl_load_domain+0xf88>
   13b04:	eafffc21 	b	12b90 <_nl_load_domain+0x2fc>
   13b08:	e51f12fc 	ldr	r1, [pc, #-764]	; 13814 <_nl_load_domain+0xf80>
   13b0c:	eafffc1f 	b	12b90 <_nl_load_domain+0x2fc>
   13b10:	e51f1314 	ldr	r1, [pc, #-788]	; 13804 <_nl_load_domain+0xf70>
   13b14:	eafffc1d 	b	12b90 <_nl_load_domain+0x2fc>
   13b18:	e51f1304 	ldr	r1, [pc, #-772]	; 1381c <_nl_load_domain+0xf88>
   13b1c:	eafffc1b 	b	12b90 <_nl_load_domain+0x2fc>
   13b20:	e51f1308 	ldr	r1, [pc, #-776]	; 13820 <_nl_load_domain+0xf8c>
   13b24:	eafffc19 	b	12b90 <_nl_load_domain+0x2fc>
   13b28:	e51f130c 	ldr	r1, [pc, #-780]	; 13824 <_nl_load_domain+0xf90>
   13b2c:	eafffc17 	b	12b90 <_nl_load_domain+0x2fc>
   13b30:	e51f1310 	ldr	r1, [pc, #-784]	; 13828 <_nl_load_domain+0xf94>
   13b34:	eafffc15 	b	12b90 <_nl_load_domain+0x2fc>
   13b38:	e3a01000 	mov	r1, #0
   13b3c:	eafffc13 	b	12b90 <_nl_load_domain+0x2fc>
   13b40:	e3510036 	cmp	r1, #54	; 0x36
   13b44:	13a01000 	movne	r1, #0
   13b48:	1afffc10 	bne	12b90 <_nl_load_domain+0x2fc>
   13b4c:	e5d3100a 	ldrb	r1, [r3, #10]
   13b50:	e3510034 	cmp	r1, #52	; 0x34
   13b54:	13a01000 	movne	r1, #0
   13b58:	1afffc0c 	bne	12b90 <_nl_load_domain+0x2fc>
   13b5c:	e5d3300b 	ldrb	r3, [r3, #11]
   13b60:	e3530000 	cmp	r3, #0
   13b64:	1a00003c 	bne	13c5c <_nl_load_domain+0x13c8>
   13b68:	e35c0064 	cmp	ip, #100	; 0x64
   13b6c:	0a000038 	beq	13c54 <_nl_load_domain+0x13c0>
   13b70:	e59d3038 	ldr	r3, [sp, #56]	; 0x38
   13b74:	e3530000 	cmp	r3, #0
   13b78:	1a000033 	bne	13c4c <_nl_load_domain+0x13b8>
   13b7c:	e35c006f 	cmp	ip, #111	; 0x6f
   13b80:	0a00002f 	beq	13c44 <_nl_load_domain+0x13b0>
   13b84:	e3560000 	cmp	r6, #0
   13b88:	1a0000a2 	bne	13e18 <_nl_load_domain+0x1584>
   13b8c:	e35c0078 	cmp	ip, #120	; 0x78
   13b90:	0a00009e 	beq	13e10 <_nl_load_domain+0x157c>
   13b94:	e35c0058 	cmp	ip, #88	; 0x58
   13b98:	1a0000bc 	bne	13e90 <_nl_load_domain+0x15fc>
   13b9c:	e51f13a8 	ldr	r1, [pc, #-936]	; 137fc <_nl_load_domain+0xf68>
   13ba0:	eafffbfa 	b	12b90 <_nl_load_domain+0x2fc>
   13ba4:	e5d3100a 	ldrb	r1, [r3, #10]
   13ba8:	e3510036 	cmp	r1, #54	; 0x36
   13bac:	13a01000 	movne	r1, #0
   13bb0:	1afffbf6 	bne	12b90 <_nl_load_domain+0x2fc>
   13bb4:	e5d3300b 	ldrb	r3, [r3, #11]
   13bb8:	e3530000 	cmp	r3, #0
   13bbc:	1a0000a1 	bne	13e48 <_nl_load_domain+0x15b4>
   13bc0:	e35c0064 	cmp	ip, #100	; 0x64
   13bc4:	0a00009d 	beq	13e40 <_nl_load_domain+0x15ac>
   13bc8:	e59d3038 	ldr	r3, [sp, #56]	; 0x38
   13bcc:	e3530000 	cmp	r3, #0
   13bd0:	1a000098 	bne	13e38 <_nl_load_domain+0x15a4>
   13bd4:	e35c006f 	cmp	ip, #111	; 0x6f
   13bd8:	0a000094 	beq	13e30 <_nl_load_domain+0x159c>
   13bdc:	e3560000 	cmp	r6, #0
   13be0:	1a000090 	bne	13e28 <_nl_load_domain+0x1594>
   13be4:	e35c0078 	cmp	ip, #120	; 0x78
   13be8:	0a00008c 	beq	13e20 <_nl_load_domain+0x158c>
   13bec:	e35c0058 	cmp	ip, #88	; 0x58
   13bf0:	1a0000a6 	bne	13e90 <_nl_load_domain+0x15fc>
   13bf4:	e51f13fc 	ldr	r1, [pc, #-1020]	; 13800 <_nl_load_domain+0xf6c>
   13bf8:	eafffbe4 	b	12b90 <_nl_load_domain+0x2fc>
   13bfc:	e5d3300a 	ldrb	r3, [r3, #10]
   13c00:	e3530000 	cmp	r3, #0
   13c04:	1a000020 	bne	13c8c <_nl_load_domain+0x13f8>
   13c08:	e35c0064 	cmp	ip, #100	; 0x64
   13c0c:	0a00001c 	beq	13c84 <_nl_load_domain+0x13f0>
   13c10:	e59d3038 	ldr	r3, [sp, #56]	; 0x38
   13c14:	e3530000 	cmp	r3, #0
   13c18:	1a000017 	bne	13c7c <_nl_load_domain+0x13e8>
   13c1c:	e35c006f 	cmp	ip, #111	; 0x6f
   13c20:	0a000013 	beq	13c74 <_nl_load_domain+0x13e0>
   13c24:	e3560000 	cmp	r6, #0
   13c28:	1a00000f 	bne	13c6c <_nl_load_domain+0x13d8>
   13c2c:	e35c0078 	cmp	ip, #120	; 0x78
   13c30:	0a00000b 	beq	13c64 <_nl_load_domain+0x13d0>
   13c34:	e35c0058 	cmp	ip, #88	; 0x58
   13c38:	1a000094 	bne	13e90 <_nl_load_domain+0x15fc>
   13c3c:	e51f1444 	ldr	r1, [pc, #-1092]	; 13800 <_nl_load_domain+0xf6c>
   13c40:	eafffbd2 	b	12b90 <_nl_load_domain+0x2fc>
   13c44:	e51f1448 	ldr	r1, [pc, #-1096]	; 13804 <_nl_load_domain+0xf70>
   13c48:	eafffbd0 	b	12b90 <_nl_load_domain+0x2fc>
   13c4c:	e51f144c 	ldr	r1, [pc, #-1100]	; 13808 <_nl_load_domain+0xf74>
   13c50:	eafffbce 	b	12b90 <_nl_load_domain+0x2fc>
   13c54:	e51f1450 	ldr	r1, [pc, #-1104]	; 1380c <_nl_load_domain+0xf78>
   13c58:	eafffbcc 	b	12b90 <_nl_load_domain+0x2fc>
   13c5c:	e3a01000 	mov	r1, #0
   13c60:	eafffbca 	b	12b90 <_nl_load_domain+0x2fc>
   13c64:	e51f1454 	ldr	r1, [pc, #-1108]	; 13818 <_nl_load_domain+0xf84>
   13c68:	eafffbc8 	b	12b90 <_nl_load_domain+0x2fc>
   13c6c:	e51f1458 	ldr	r1, [pc, #-1112]	; 1381c <_nl_load_domain+0xf88>
   13c70:	eafffbc6 	b	12b90 <_nl_load_domain+0x2fc>
   13c74:	e51f145c 	ldr	r1, [pc, #-1116]	; 13820 <_nl_load_domain+0xf8c>
   13c78:	eafffbc4 	b	12b90 <_nl_load_domain+0x2fc>
   13c7c:	e51f1460 	ldr	r1, [pc, #-1120]	; 13824 <_nl_load_domain+0xf90>
   13c80:	eafffbc2 	b	12b90 <_nl_load_domain+0x2fc>
   13c84:	e51f1464 	ldr	r1, [pc, #-1124]	; 13828 <_nl_load_domain+0xf94>
   13c88:	eafffbc0 	b	12b90 <_nl_load_domain+0x2fc>
   13c8c:	e3a01000 	mov	r1, #0
   13c90:	eafffbbe 	b	12b90 <_nl_load_domain+0x2fc>
   13c94:	e51f1480 	ldr	r1, [pc, #-1152]	; 1381c <_nl_load_domain+0xf88>
   13c98:	eafffbbc 	b	12b90 <_nl_load_domain+0x2fc>
   13c9c:	e51f1484 	ldr	r1, [pc, #-1156]	; 13820 <_nl_load_domain+0xf8c>
   13ca0:	eafffbba 	b	12b90 <_nl_load_domain+0x2fc>
   13ca4:	e51f1488 	ldr	r1, [pc, #-1160]	; 13824 <_nl_load_domain+0xf90>
   13ca8:	eafffbb8 	b	12b90 <_nl_load_domain+0x2fc>
   13cac:	e51f148c 	ldr	r1, [pc, #-1164]	; 13828 <_nl_load_domain+0xf94>
   13cb0:	eafffbb6 	b	12b90 <_nl_load_domain+0x2fc>
   13cb4:	e3a01000 	mov	r1, #0
   13cb8:	eafffbb4 	b	12b90 <_nl_load_domain+0x2fc>
   13cbc:	e3510036 	cmp	r1, #54	; 0x36
   13cc0:	13a01000 	movne	r1, #0
   13cc4:	1afffbb1 	bne	12b90 <_nl_load_domain+0x2fc>
   13cc8:	e5d31009 	ldrb	r1, [r3, #9]
   13ccc:	e3510034 	cmp	r1, #52	; 0x34
   13cd0:	13a01000 	movne	r1, #0
   13cd4:	1afffbad 	bne	12b90 <_nl_load_domain+0x2fc>
   13cd8:	e5d3300a 	ldrb	r3, [r3, #10]
   13cdc:	e3530000 	cmp	r3, #0
   13ce0:	1a00003c 	bne	13dd8 <_nl_load_domain+0x1544>
   13ce4:	e35c0064 	cmp	ip, #100	; 0x64
   13ce8:	0a000038 	beq	13dd0 <_nl_load_domain+0x153c>
   13cec:	e59d3038 	ldr	r3, [sp, #56]	; 0x38
   13cf0:	e3530000 	cmp	r3, #0
   13cf4:	1a000033 	bne	13dc8 <_nl_load_domain+0x1534>
   13cf8:	e35c006f 	cmp	ip, #111	; 0x6f
   13cfc:	0a00002f 	beq	13dc0 <_nl_load_domain+0x152c>
   13d00:	e3560000 	cmp	r6, #0
   13d04:	1a000053 	bne	13e58 <_nl_load_domain+0x15c4>
   13d08:	e35c0078 	cmp	ip, #120	; 0x78
   13d0c:	0a00004f 	beq	13e50 <_nl_load_domain+0x15bc>
   13d10:	e35c0058 	cmp	ip, #88	; 0x58
   13d14:	1a00005d 	bne	13e90 <_nl_load_domain+0x15fc>
   13d18:	e51f1524 	ldr	r1, [pc, #-1316]	; 137fc <_nl_load_domain+0xf68>
   13d1c:	eafffb9b 	b	12b90 <_nl_load_domain+0x2fc>
   13d20:	e5d31009 	ldrb	r1, [r3, #9]
   13d24:	e3510036 	cmp	r1, #54	; 0x36
   13d28:	13a01000 	movne	r1, #0
   13d2c:	1afffb97 	bne	12b90 <_nl_load_domain+0x2fc>
   13d30:	e5d3300a 	ldrb	r3, [r3, #10]
   13d34:	e3530000 	cmp	r3, #0
   13d38:	1a000052 	bne	13e88 <_nl_load_domain+0x15f4>
   13d3c:	e35c0064 	cmp	ip, #100	; 0x64
   13d40:	0a00004e 	beq	13e80 <_nl_load_domain+0x15ec>
   13d44:	e59d3038 	ldr	r3, [sp, #56]	; 0x38
   13d48:	e3530000 	cmp	r3, #0
   13d4c:	1a000049 	bne	13e78 <_nl_load_domain+0x15e4>
   13d50:	e35c006f 	cmp	ip, #111	; 0x6f
   13d54:	0a000045 	beq	13e70 <_nl_load_domain+0x15dc>
   13d58:	e3560000 	cmp	r6, #0
   13d5c:	1a000041 	bne	13e68 <_nl_load_domain+0x15d4>
   13d60:	e35c0078 	cmp	ip, #120	; 0x78
   13d64:	0a00003d 	beq	13e60 <_nl_load_domain+0x15cc>
   13d68:	e35c0058 	cmp	ip, #88	; 0x58
   13d6c:	1a000047 	bne	13e90 <_nl_load_domain+0x15fc>
   13d70:	e51f1578 	ldr	r1, [pc, #-1400]	; 13800 <_nl_load_domain+0xf6c>
   13d74:	eafffb85 	b	12b90 <_nl_load_domain+0x2fc>
   13d78:	e5d33009 	ldrb	r3, [r3, #9]
   13d7c:	e3530000 	cmp	r3, #0
   13d80:	1a000020 	bne	13e08 <_nl_load_domain+0x1574>
   13d84:	e35c0064 	cmp	ip, #100	; 0x64
   13d88:	0a00001c 	beq	13e00 <_nl_load_domain+0x156c>
   13d8c:	e59d3038 	ldr	r3, [sp, #56]	; 0x38
   13d90:	e3530000 	cmp	r3, #0
   13d94:	1a000017 	bne	13df8 <_nl_load_domain+0x1564>
   13d98:	e35c006f 	cmp	ip, #111	; 0x6f
   13d9c:	0a000013 	beq	13df0 <_nl_load_domain+0x155c>
   13da0:	e3560000 	cmp	r6, #0
   13da4:	1a00000f 	bne	13de8 <_nl_load_domain+0x1554>
   13da8:	e35c0078 	cmp	ip, #120	; 0x78
   13dac:	0a00000b 	beq	13de0 <_nl_load_domain+0x154c>
   13db0:	e35c0058 	cmp	ip, #88	; 0x58
   13db4:	1a000035 	bne	13e90 <_nl_load_domain+0x15fc>
   13db8:	e51f15c0 	ldr	r1, [pc, #-1472]	; 13800 <_nl_load_domain+0xf6c>
   13dbc:	eafffb73 	b	12b90 <_nl_load_domain+0x2fc>
   13dc0:	e51f15c4 	ldr	r1, [pc, #-1476]	; 13804 <_nl_load_domain+0xf70>
   13dc4:	eafffb71 	b	12b90 <_nl_load_domain+0x2fc>
   13dc8:	e51f15c8 	ldr	r1, [pc, #-1480]	; 13808 <_nl_load_domain+0xf74>
   13dcc:	eafffb6f 	b	12b90 <_nl_load_domain+0x2fc>
   13dd0:	e51f15cc 	ldr	r1, [pc, #-1484]	; 1380c <_nl_load_domain+0xf78>
   13dd4:	eafffb6d 	b	12b90 <_nl_load_domain+0x2fc>
   13dd8:	e3a01000 	mov	r1, #0
   13ddc:	eafffb6b 	b	12b90 <_nl_load_domain+0x2fc>
   13de0:	e51f15d0 	ldr	r1, [pc, #-1488]	; 13818 <_nl_load_domain+0xf84>
   13de4:	eafffb69 	b	12b90 <_nl_load_domain+0x2fc>
   13de8:	e51f15d4 	ldr	r1, [pc, #-1492]	; 1381c <_nl_load_domain+0xf88>
   13dec:	eafffb67 	b	12b90 <_nl_load_domain+0x2fc>
   13df0:	e51f15d8 	ldr	r1, [pc, #-1496]	; 13820 <_nl_load_domain+0xf8c>
   13df4:	eafffb65 	b	12b90 <_nl_load_domain+0x2fc>
   13df8:	e51f15dc 	ldr	r1, [pc, #-1500]	; 13824 <_nl_load_domain+0xf90>
   13dfc:	eafffb63 	b	12b90 <_nl_load_domain+0x2fc>
   13e00:	e51f15e0 	ldr	r1, [pc, #-1504]	; 13828 <_nl_load_domain+0xf94>
   13e04:	eafffb61 	b	12b90 <_nl_load_domain+0x2fc>
   13e08:	e3a01000 	mov	r1, #0
   13e0c:	eafffb5f 	b	12b90 <_nl_load_domain+0x2fc>
   13e10:	e51f1608 	ldr	r1, [pc, #-1544]	; 13810 <_nl_load_domain+0xf7c>
   13e14:	eafffb5d 	b	12b90 <_nl_load_domain+0x2fc>
   13e18:	e51f160c 	ldr	r1, [pc, #-1548]	; 13814 <_nl_load_domain+0xf80>
   13e1c:	eafffb5b 	b	12b90 <_nl_load_domain+0x2fc>
   13e20:	e51f1610 	ldr	r1, [pc, #-1552]	; 13818 <_nl_load_domain+0xf84>
   13e24:	eafffb59 	b	12b90 <_nl_load_domain+0x2fc>
   13e28:	e51f1614 	ldr	r1, [pc, #-1556]	; 1381c <_nl_load_domain+0xf88>
   13e2c:	eafffb57 	b	12b90 <_nl_load_domain+0x2fc>
   13e30:	e51f1618 	ldr	r1, [pc, #-1560]	; 13820 <_nl_load_domain+0xf8c>
   13e34:	eafffb55 	b	12b90 <_nl_load_domain+0x2fc>
   13e38:	e51f161c 	ldr	r1, [pc, #-1564]	; 13824 <_nl_load_domain+0xf90>
   13e3c:	eafffb53 	b	12b90 <_nl_load_domain+0x2fc>
   13e40:	e51f1620 	ldr	r1, [pc, #-1568]	; 13828 <_nl_load_domain+0xf94>
   13e44:	eafffb51 	b	12b90 <_nl_load_domain+0x2fc>
   13e48:	e3a01000 	mov	r1, #0
   13e4c:	eafffb4f 	b	12b90 <_nl_load_domain+0x2fc>
   13e50:	e51f1648 	ldr	r1, [pc, #-1608]	; 13810 <_nl_load_domain+0xf7c>
   13e54:	eafffb4d 	b	12b90 <_nl_load_domain+0x2fc>
   13e58:	e51f164c 	ldr	r1, [pc, #-1612]	; 13814 <_nl_load_domain+0xf80>
   13e5c:	eafffb4b 	b	12b90 <_nl_load_domain+0x2fc>
   13e60:	e51f1650 	ldr	r1, [pc, #-1616]	; 13818 <_nl_load_domain+0xf84>
   13e64:	eafffb49 	b	12b90 <_nl_load_domain+0x2fc>
   13e68:	e51f1654 	ldr	r1, [pc, #-1620]	; 1381c <_nl_load_domain+0xf88>
   13e6c:	eafffb47 	b	12b90 <_nl_load_domain+0x2fc>
   13e70:	e51f1658 	ldr	r1, [pc, #-1624]	; 13820 <_nl_load_domain+0xf8c>
   13e74:	eafffb45 	b	12b90 <_nl_load_domain+0x2fc>
   13e78:	e51f165c 	ldr	r1, [pc, #-1628]	; 13824 <_nl_load_domain+0xf90>
   13e7c:	eafffb43 	b	12b90 <_nl_load_domain+0x2fc>
   13e80:	e51f1660 	ldr	r1, [pc, #-1632]	; 13828 <_nl_load_domain+0xf94>
   13e84:	eafffb41 	b	12b90 <_nl_load_domain+0x2fc>
   13e88:	e3a01000 	mov	r1, #0
   13e8c:	eafffb3f 	b	12b90 <_nl_load_domain+0x2fc>
   13e90:	ebfff0b6 	bl	10170 <abort>

00013e94 <alias_compare>:
   13e94:	e5900000 	ldr	r0, [r0]
   13e98:	e5911000 	ldr	r1, [r1]
   13e9c:	e59f2000 	ldr	r2, [pc]	; 13ea4 <alias_compare+0x10>
   13ea0:	ea006206 	b	2c6c0 <__strcasecmp_l>
   13ea4:	000736a8 	.word	0x000736a8

00013ea8 <read_alias_file>:
   13ea8:	e92d4ff0 	push	{r4, r5, r6, r7, r8, r9, sl, fp, lr}
   13eac:	e2813015 	add	r3, r1, #21
   13eb0:	e28db020 	add	fp, sp, #32
   13eb4:	e3c33007 	bic	r3, r3, #7
   13eb8:	e24ddf71 	sub	sp, sp, #452	; 0x1c4
   13ebc:	e04dd003 	sub	sp, sp, r3
   13ec0:	e1a0400d 	mov	r4, sp
   13ec4:	e59f340c 	ldr	r3, [pc, #1036]	; 142d8 <read_alias_file+0x430>
   13ec8:	e1a02001 	mov	r2, r1
   13ecc:	e1a01000 	mov	r1, r0
   13ed0:	e1a00004 	mov	r0, r4
   13ed4:	e5933000 	ldr	r3, [r3]
   13ed8:	e50b3028 	str	r3, [fp, #-40]	; 0xffffffd8
   13edc:	e3a03000 	mov	r3, #0
   13ee0:	eb0061e5 	bl	2c67c <__mempcpy>
   13ee4:	e3a0200e 	mov	r2, #14
   13ee8:	e59f13ec 	ldr	r1, [pc, #1004]	; 142dc <read_alias_file+0x434>
   13eec:	eb006203 	bl	2c700 <memcpy>
   13ef0:	e1a00004 	mov	r0, r4
   13ef4:	e59f13e4 	ldr	r1, [pc, #996]	; 142e0 <read_alias_file+0x438>
   13ef8:	eb0024b3 	bl	1d1cc <_IO_new_fopen>
   13efc:	e2509000 	subs	r9, r0, #0
   13f00:	0a0000da 	beq	14270 <read_alias_file+0x3c8>
   13f04:	e5993000 	ldr	r3, [r9]
   13f08:	e3832902 	orr	r2, r3, #32768	; 0x8000
   13f0c:	e2133010 	ands	r3, r3, #16
   13f10:	e5892000 	str	r2, [r9]
   13f14:	1a0000d4 	bne	1426c <read_alias_file+0x3c4>
   13f18:	e59fa3c4 	ldr	sl, [pc, #964]	; 142e4 <read_alias_file+0x43c>
   13f1c:	e50b31c0 	str	r3, [fp, #-448]	; 0xfffffe40
   13f20:	e1a02009 	mov	r2, r9
   13f24:	e3a01e19 	mov	r1, #400	; 0x190
   13f28:	e24b0f6e 	sub	r0, fp, #440	; 0x1b8
   13f2c:	eb002de5 	bl	1f6c8 <__fgets_unlocked>
   13f30:	e3500000 	cmp	r0, #0
   13f34:	0a00001a 	beq	13fa4 <read_alias_file+0xfc>
   13f38:	e3a0100a 	mov	r1, #10
   13f3c:	e24b0f6e 	sub	r0, fp, #440	; 0x1b8
   13f40:	eb005c6f 	bl	2b104 <strchr>
   13f44:	e1a03000 	mov	r3, r0
   13f48:	ebfff3bc 	bl	10e40 <__aeabi_read_tp>
   13f4c:	e59f1394 	ldr	r1, [pc, #916]	; 142e8 <read_alias_file+0x440>
   13f50:	e55b21b8 	ldrb	r2, [fp, #-440]	; 0xfffffe48
   13f54:	e79f1001 	ldr	r1, [pc, r1]
   13f58:	e1a0c082 	lsl	ip, r2, #1
   13f5c:	e7900001 	ldr	r0, [r0, r1]
   13f60:	e24b4f6e 	sub	r4, fp, #440	; 0x1b8
   13f64:	e19010bc 	ldrh	r1, [r0, ip]
   13f68:	e3110a02 	tst	r1, #8192	; 0x2000
   13f6c:	0a000004 	beq	13f84 <read_alias_file+0xdc>
   13f70:	e5f42001 	ldrb	r2, [r4, #1]!
   13f74:	e1a01082 	lsl	r1, r2, #1
   13f78:	e19010b1 	ldrh	r1, [r0, r1]
   13f7c:	e3110a02 	tst	r1, #8192	; 0x2000
   13f80:	1afffffa 	bne	13f70 <read_alias_file+0xc8>
   13f84:	e3520000 	cmp	r2, #0
   13f88:	13520023 	cmpne	r2, #35	; 0x23
   13f8c:	1a000025 	bne	14028 <read_alias_file+0x180>
   13f90:	e3530000 	cmp	r3, #0
   13f94:	0a00001c 	beq	1400c <read_alias_file+0x164>
   13f98:	e5993000 	ldr	r3, [r9]
   13f9c:	e3130010 	tst	r3, #16
   13fa0:	0affffde 	beq	13f20 <read_alias_file+0x78>
   13fa4:	e51b81c0 	ldr	r8, [fp, #-448]	; 0xfffffe40
   13fa8:	e1a00009 	mov	r0, r9
   13fac:	eb0022f6 	bl	1cb8c <_IO_new_fclose>
   13fb0:	e3580000 	cmp	r8, #0
   13fb4:	0a000006 	beq	13fd4 <read_alias_file+0x12c>
   13fb8:	e59f2324 	ldr	r2, [pc, #804]	; 142e4 <read_alias_file+0x43c>
   13fbc:	e59f3328 	ldr	r3, [pc, #808]	; 142ec <read_alias_file+0x444>
   13fc0:	e5921000 	ldr	r1, [r2]
   13fc4:	e5930000 	ldr	r0, [r3]
   13fc8:	e3a02008 	mov	r2, #8
   13fcc:	e59f331c 	ldr	r3, [pc, #796]	; 142f0 <read_alias_file+0x448>
   13fd0:	eb0007bf 	bl	15ed4 <qsort>
   13fd4:	e59f32fc 	ldr	r3, [pc, #764]	; 142d8 <read_alias_file+0x430>
   13fd8:	e5932000 	ldr	r2, [r3]
   13fdc:	e51b3028 	ldr	r3, [fp, #-40]	; 0xffffffd8
   13fe0:	e0332002 	eors	r2, r3, r2
   13fe4:	e3a03000 	mov	r3, #0
   13fe8:	1a0000b9 	bne	142d4 <read_alias_file+0x42c>
   13fec:	e1a00008 	mov	r0, r8
   13ff0:	e24bd020 	sub	sp, fp, #32
   13ff4:	e8bd8ff0 	pop	{r4, r5, r6, r7, r8, r9, sl, fp, pc}
   13ff8:	e3a0100a 	mov	r1, #10
   13ffc:	e24b0f6e 	sub	r0, fp, #440	; 0x1b8
   14000:	eb005c3f 	bl	2b104 <strchr>
   14004:	e3500000 	cmp	r0, #0
   14008:	1affffe2 	bne	13f98 <read_alias_file+0xf0>
   1400c:	e1a02009 	mov	r2, r9
   14010:	e3a01e19 	mov	r1, #400	; 0x190
   14014:	e24b0f6e 	sub	r0, fp, #440	; 0x1b8
   14018:	eb002daa 	bl	1f6c8 <__fgets_unlocked>
   1401c:	e3500000 	cmp	r0, #0
   14020:	1afffff4 	bne	13ff8 <read_alias_file+0x150>
   14024:	eaffffdb 	b	13f98 <read_alias_file+0xf0>
   14028:	e5d42001 	ldrb	r2, [r4, #1]
   1402c:	e2845001 	add	r5, r4, #1
   14030:	e3520000 	cmp	r2, #0
   14034:	1a000002 	bne	14044 <read_alias_file+0x19c>
   14038:	ea00000f 	b	1407c <read_alias_file+0x1d4>
   1403c:	e3520000 	cmp	r2, #0
   14040:	0a00000d 	beq	1407c <read_alias_file+0x1d4>
   14044:	e1a02082 	lsl	r2, r2, #1
   14048:	e19010b2 	ldrh	r1, [r0, r2]
   1404c:	e5d52001 	ldrb	r2, [r5, #1]
   14050:	e3110a02 	tst	r1, #8192	; 0x2000
   14054:	e1a01005 	mov	r1, r5
   14058:	e2855001 	add	r5, r5, #1
   1405c:	0afffff6 	beq	1403c <read_alias_file+0x194>
   14060:	e3a0c000 	mov	ip, #0
   14064:	e5c1c000 	strb	ip, [r1]
   14068:	e1a01082 	lsl	r1, r2, #1
   1406c:	e19010b1 	ldrh	r1, [r0, r1]
   14070:	e3110a02 	tst	r1, #8192	; 0x2000
   14074:	0a000004 	beq	1408c <read_alias_file+0x1e4>
   14078:	e5f52001 	ldrb	r2, [r5, #1]!
   1407c:	e1a01082 	lsl	r1, r2, #1
   14080:	e19010b1 	ldrh	r1, [r0, r1]
   14084:	e3110a02 	tst	r1, #8192	; 0x2000
   14088:	1afffffa 	bne	14078 <read_alias_file+0x1d0>
   1408c:	e3520000 	cmp	r2, #0
   14090:	0affffbe 	beq	13f90 <read_alias_file+0xe8>
   14094:	e5d52001 	ldrb	r2, [r5, #1]
   14098:	e2851001 	add	r1, r5, #1
   1409c:	e3520000 	cmp	r2, #0
   140a0:	1a000003 	bne	140b4 <read_alias_file+0x20c>
   140a4:	ea00000b 	b	140d8 <read_alias_file+0x230>
   140a8:	e5f12001 	ldrb	r2, [r1, #1]!
   140ac:	e3520000 	cmp	r2, #0
   140b0:	0a000008 	beq	140d8 <read_alias_file+0x230>
   140b4:	e1a0c082 	lsl	ip, r2, #1
   140b8:	e190c0bc 	ldrh	ip, [r0, ip]
   140bc:	e31c0a02 	tst	ip, #8192	; 0x2000
   140c0:	0afffff8 	beq	140a8 <read_alias_file+0x200>
   140c4:	e352000a 	cmp	r2, #10
   140c8:	03a00000 	moveq	r0, #0
   140cc:	05c12001 	strbeq	r2, [r1, #1]
   140d0:	05c10000 	strbeq	r0, [r1]
   140d4:	1a00004f 	bne	14218 <read_alias_file+0x370>
   140d8:	e59a6000 	ldr	r6, [sl]
   140dc:	e59a2004 	ldr	r2, [sl, #4]
   140e0:	e1560002 	cmp	r6, r2
   140e4:	2a000051 	bcs	14230 <read_alias_file+0x388>
   140e8:	e1a00004 	mov	r0, r4
   140ec:	e50b31d4 	str	r3, [fp, #-468]	; 0xfffffe2c
   140f0:	eb005d26 	bl	2b590 <strlen>
   140f4:	e1a02000 	mov	r2, r0
   140f8:	e1a00005 	mov	r0, r5
   140fc:	e2822001 	add	r2, r2, #1
   14100:	e50b21c4 	str	r2, [fp, #-452]	; 0xfffffe3c
   14104:	eb005d21 	bl	2b590 <strlen>
   14108:	e59a3008 	ldr	r3, [sl, #8]
   1410c:	e51b21c4 	ldr	r2, [fp, #-452]	; 0xfffffe3c
   14110:	e2808001 	add	r8, r0, #1
   14114:	e59a100c 	ldr	r1, [sl, #12]
   14118:	e50b31c8 	str	r3, [fp, #-456]	; 0xfffffe38
   1411c:	e0833002 	add	r3, r3, r2
   14120:	e59f01c4 	ldr	r0, [pc, #452]	; 142ec <read_alias_file+0x444>
   14124:	e50b31cc 	str	r3, [fp, #-460]	; 0xfffffe34
   14128:	e0833008 	add	r3, r3, r8
   1412c:	e1530001 	cmp	r3, r1
   14130:	e50b31d0 	str	r3, [fp, #-464]	; 0xfffffe30
   14134:	e5907004 	ldr	r7, [r0, #4]
   14138:	e51b31d4 	ldr	r3, [fp, #-468]	; 0xfffffe2c
   1413c:	9a000019 	bls	141a8 <read_alias_file+0x300>
   14140:	e0820008 	add	r0, r2, r8
   14144:	e3500b01 	cmp	r0, #1024	; 0x400
   14148:	20811000 	addcs	r1, r1, r0
   1414c:	32811b01 	addcc	r1, r1, #1024	; 0x400
   14150:	e1a00007 	mov	r0, r7
   14154:	e50b31e0 	str	r3, [fp, #-480]	; 0xfffffe20
   14158:	e50b21dc 	str	r2, [fp, #-476]	; 0xfffffe24
   1415c:	e50b11d8 	str	r1, [fp, #-472]	; 0xfffffe28
   14160:	eb00572a 	bl	29e10 <__libc_realloc>
   14164:	e2503000 	subs	r3, r0, #0
   14168:	e50b31c4 	str	r3, [fp, #-452]	; 0xfffffe3c
   1416c:	0affff8c 	beq	13fa4 <read_alias_file+0xfc>
   14170:	e1530007 	cmp	r3, r7
   14174:	e59f3170 	ldr	r3, [pc, #368]	; 142ec <read_alias_file+0x444>
   14178:	e51b21dc 	ldr	r2, [fp, #-476]	; 0xfffffe24
   1417c:	e5933000 	ldr	r3, [r3]
   14180:	e50b31d4 	str	r3, [fp, #-468]	; 0xfffffe2c
   14184:	e51b31e0 	ldr	r3, [fp, #-480]	; 0xfffffe20
   14188:	1a00003a 	bne	14278 <read_alias_file+0x3d0>
   1418c:	e1a07186 	lsl	r7, r6, #3
   14190:	e59f1154 	ldr	r1, [pc, #340]	; 142ec <read_alias_file+0x444>
   14194:	e51b01c4 	ldr	r0, [fp, #-452]	; 0xfffffe3c
   14198:	e5810004 	str	r0, [r1, #4]
   1419c:	e51b11d8 	ldr	r1, [fp, #-472]	; 0xfffffe28
   141a0:	e58a100c 	str	r1, [sl, #12]
   141a4:	ea000003 	b	141b8 <read_alias_file+0x310>
   141a8:	e5901000 	ldr	r1, [r0]
   141ac:	e50b71c4 	str	r7, [fp, #-452]	; 0xfffffe3c
   141b0:	e50b11d4 	str	r1, [fp, #-468]	; 0xfffffe2c
   141b4:	e1a07186 	lsl	r7, r6, #3
   141b8:	e1a01004 	mov	r1, r4
   141bc:	e50b31d8 	str	r3, [fp, #-472]	; 0xfffffe28
   141c0:	e51b41c4 	ldr	r4, [fp, #-452]	; 0xfffffe3c
   141c4:	e51b31c8 	ldr	r3, [fp, #-456]	; 0xfffffe38
   141c8:	e2866001 	add	r6, r6, #1
   141cc:	e0840003 	add	r0, r4, r3
   141d0:	eb00614a 	bl	2c700 <memcpy>
   141d4:	e51b31cc 	ldr	r3, [fp, #-460]	; 0xfffffe34
   141d8:	e1a02008 	mov	r2, r8
   141dc:	e51b81d4 	ldr	r8, [fp, #-468]	; 0xfffffe2c
   141e0:	e1a01005 	mov	r1, r5
   141e4:	e7880007 	str	r0, [r8, r7]
   141e8:	e0840003 	add	r0, r4, r3
   141ec:	eb006143 	bl	2c700 <memcpy>
   141f0:	e51b31d0 	ldr	r3, [fp, #-464]	; 0xfffffe30
   141f4:	e0887007 	add	r7, r8, r7
   141f8:	e58a3008 	str	r3, [sl, #8]
   141fc:	e51b31c0 	ldr	r3, [fp, #-448]	; 0xfffffe40
   14200:	e5870004 	str	r0, [r7, #4]
   14204:	e2833001 	add	r3, r3, #1
   14208:	e50b31c0 	str	r3, [fp, #-448]	; 0xfffffe40
   1420c:	e58a6000 	str	r6, [sl]
   14210:	e51b31d8 	ldr	r3, [fp, #-472]	; 0xfffffe28
   14214:	eaffff5d 	b	13f90 <read_alias_file+0xe8>
   14218:	e3a02000 	mov	r2, #0
   1421c:	e59a6000 	ldr	r6, [sl]
   14220:	e5c12000 	strb	r2, [r1]
   14224:	e59a2004 	ldr	r2, [sl, #4]
   14228:	e1560002 	cmp	r6, r2
   1422c:	3affffad 	bcc	140e8 <read_alias_file+0x240>
   14230:	e59f80b4 	ldr	r8, [pc, #180]	; 142ec <read_alias_file+0x444>
   14234:	e3520000 	cmp	r2, #0
   14238:	03a01e32 	moveq	r1, #800	; 0x320
   1423c:	11a01202 	lslne	r1, r2, #4
   14240:	e5980000 	ldr	r0, [r8]
   14244:	03a07064 	moveq	r7, #100	; 0x64
   14248:	11a07082 	lslne	r7, r2, #1
   1424c:	e50b31c4 	str	r3, [fp, #-452]	; 0xfffffe3c
   14250:	eb0056ee 	bl	29e10 <__libc_realloc>
   14254:	e3500000 	cmp	r0, #0
   14258:	0affff51 	beq	13fa4 <read_alias_file+0xfc>
   1425c:	e51b31c4 	ldr	r3, [fp, #-452]	; 0xfffffe3c
   14260:	e5880000 	str	r0, [r8]
   14264:	e58a7004 	str	r7, [sl, #4]
   14268:	eaffff9e 	b	140e8 <read_alias_file+0x240>
   1426c:	eb002246 	bl	1cb8c <_IO_new_fclose>
   14270:	e3a08000 	mov	r8, #0
   14274:	eaffff56 	b	13fd4 <read_alias_file+0x12c>
   14278:	e3560000 	cmp	r6, #0
   1427c:	01a07006 	moveq	r7, r6
   14280:	0affffc2 	beq	14190 <read_alias_file+0x2e8>
   14284:	e51bc1d4 	ldr	ip, [fp, #-468]	; 0xfffffe2c
   14288:	e51b01c4 	ldr	r0, [fp, #-452]	; 0xfffffe3c
   1428c:	e1a0100c 	mov	r1, ip
   14290:	e040e007 	sub	lr, r0, r7
   14294:	e28c0004 	add	r0, ip, #4
   14298:	e08cc186 	add	ip, ip, r6, lsl #3
   1429c:	e1a07186 	lsl	r7, r6, #3
   142a0:	e50bc1dc 	str	ip, [fp, #-476]	; 0xfffffe24
   142a4:	e510c004 	ldr	ip, [r0, #-4]
   142a8:	e2811008 	add	r1, r1, #8
   142ac:	e08cc00e 	add	ip, ip, lr
   142b0:	e500c004 	str	ip, [r0, #-4]
   142b4:	e511c004 	ldr	ip, [r1, #-4]
   142b8:	e2800008 	add	r0, r0, #8
   142bc:	e08cc00e 	add	ip, ip, lr
   142c0:	e501c004 	str	ip, [r1, #-4]
   142c4:	e51bc1dc 	ldr	ip, [fp, #-476]	; 0xfffffe24
   142c8:	e15c0001 	cmp	ip, r1
   142cc:	1afffff4 	bne	142a4 <read_alias_file+0x3fc>
   142d0:	eaffffae 	b	14190 <read_alias_file+0x2e8>
   142d4:	eb0070d4 	bl	3062c <__stack_chk_fail>
   142d8:	00061a8c 	.word	0x00061a8c
   142dc:	00061a7c 	.word	0x00061a7c
   142e0:	00061a78 	.word	0x00061a78
   142e4:	0008b128 	.word	0x0008b128
   142e8:	000760fc 	.word	0x000760fc
   142ec:	0008b918 	.word	0x0008b918
   142f0:	00013e94 	.word	0x00013e94

000142f4 <_nl_expand_alias>:
   142f4:	e92d4ff8 	push	{r3, r4, r5, r6, r7, r8, r9, sl, fp, lr}
   142f8:	e59f71b8 	ldr	r7, [pc, #440]	; 144b8 <_nl_expand_alias+0x1c4>
   142fc:	e1a06000 	mov	r6, r0
   14300:	e1a02007 	mov	r2, r7
   14304:	e3a01001 	mov	r1, #1
   14308:	e3a04000 	mov	r4, #0
   1430c:	e5923000 	ldr	r3, [r2]
   14310:	e1530004 	cmp	r3, r4
   14314:	1a000005 	bne	14330 <_nl_expand_alias+0x3c>
   14318:	e1a00004 	mov	r0, r4
   1431c:	e3e03a0f 	mvn	r3, #61440	; 0xf000
   14320:	e1a0e00f 	mov	lr, pc
   14324:	e243f03f 	sub	pc, r3, #63	; 0x3f
   14328:	3afffff7 	bcc	1430c <_nl_expand_alias+0x18>
   1432c:	e1a03004 	mov	r3, r4
   14330:	e1530004 	cmp	r3, r4
   14334:	1a000054 	bne	1448c <_nl_expand_alias+0x198>
   14338:	e59f517c 	ldr	r5, [pc, #380]	; 144bc <_nl_expand_alias+0x1c8>
   1433c:	e59f417c 	ldr	r4, [pc, #380]	; 144c0 <_nl_expand_alias+0x1cc>
   14340:	e5953014 	ldr	r3, [r5, #20]
   14344:	e595a000 	ldr	sl, [r5]
   14348:	e3530000 	cmp	r3, #0
   1434c:	059f3170 	ldreq	r3, [pc, #368]	; 144c4 <_nl_expand_alias+0x1d0>
   14350:	05853014 	streq	r3, [r5, #20]
   14354:	e35a0000 	cmp	sl, #0
   14358:	1a000036 	bne	14438 <_nl_expand_alias+0x144>
   1435c:	e5950014 	ldr	r0, [r5, #20]
   14360:	e3a02000 	mov	r2, #0
   14364:	e5d03000 	ldrb	r3, [r0]
   14368:	e3530000 	cmp	r3, #0
   1436c:	0a000012 	beq	143bc <_nl_expand_alias+0xc8>
   14370:	e353003a 	cmp	r3, #58	; 0x3a
   14374:	1a000004 	bne	1438c <_nl_expand_alias+0x98>
   14378:	e5f03001 	ldrb	r3, [r0, #1]!
   1437c:	e353003a 	cmp	r3, #58	; 0x3a
   14380:	0afffffc 	beq	14378 <_nl_expand_alias+0x84>
   14384:	e3530000 	cmp	r3, #0
   14388:	0a000020 	beq	14410 <_nl_expand_alias+0x11c>
   1438c:	e1a02000 	mov	r2, r0
   14390:	e5f23001 	ldrb	r3, [r2, #1]!
   14394:	e3530000 	cmp	r3, #0
   14398:	1353003a 	cmpne	r3, #58	; 0x3a
   1439c:	1afffffb 	bne	14390 <_nl_expand_alias+0x9c>
   143a0:	e1520000 	cmp	r2, r0
   143a4:	8a00001b 	bhi	14418 <_nl_expand_alias+0x124>
   143a8:	e1a00002 	mov	r0, r2
   143ac:	e5d03000 	ldrb	r3, [r0]
   143b0:	e3a02001 	mov	r2, #1
   143b4:	e3530000 	cmp	r3, #0
   143b8:	1affffec 	bne	14370 <_nl_expand_alias+0x7c>
   143bc:	e3a06000 	mov	r6, #0
   143c0:	e3520000 	cmp	r2, #0
   143c4:	15850014 	strne	r0, [r5, #20]
   143c8:	e3a01000 	mov	r1, #0
   143cc:	e1a02007 	mov	r2, r7
   143d0:	e5954010 	ldr	r4, [r5, #16]
   143d4:	e5923000 	ldr	r3, [r2]
   143d8:	e1530004 	cmp	r3, r4
   143dc:	1a000005 	bne	143f8 <_nl_expand_alias+0x104>
   143e0:	e1a00004 	mov	r0, r4
   143e4:	e3e03a0f 	mvn	r3, #61440	; 0xf000
   143e8:	e1a0e00f 	mov	lr, pc
   143ec:	e243f03f 	sub	pc, r3, #63	; 0x3f
   143f0:	3afffff7 	bcc	143d4 <_nl_expand_alias+0xe0>
   143f4:	e1a03004 	mov	r3, r4
   143f8:	e1540003 	cmp	r4, r3
   143fc:	1afffff1 	bne	143c8 <_nl_expand_alias+0xd4>
   14400:	e3540001 	cmp	r4, #1
   14404:	ca000023 	bgt	14498 <_nl_expand_alias+0x1a4>
   14408:	e1a00006 	mov	r0, r6
   1440c:	e8bd8ff8 	pop	{r3, r4, r5, r6, r7, r8, r9, sl, fp, pc}
   14410:	e1a02000 	mov	r2, r0
   14414:	eaffffe3 	b	143a8 <_nl_expand_alias+0xb4>
   14418:	e0421000 	sub	r1, r2, r0
   1441c:	e5852014 	str	r2, [r5, #20]
   14420:	ebfffea0 	bl	13ea8 <read_alias_file>
   14424:	e3500000 	cmp	r0, #0
   14428:	0affffcb 	beq	1435c <_nl_expand_alias+0x68>
   1442c:	e595a000 	ldr	sl, [r5]
   14430:	e35a0000 	cmp	sl, #0
   14434:	0affffc8 	beq	1435c <_nl_expand_alias+0x68>
   14438:	e59f3088 	ldr	r3, [pc, #136]	; 144c8 <_nl_expand_alias+0x1d4>
   1443c:	e3a0b000 	mov	fp, #0
   14440:	e5938000 	ldr	r8, [r3]
   14444:	ea000003 	b	14458 <_nl_expand_alias+0x164>
   14448:	0a00000d 	beq	14484 <_nl_expand_alias+0x190>
   1444c:	e289b001 	add	fp, r9, #1
   14450:	e15a000b 	cmp	sl, fp
   14454:	9affffc0 	bls	1435c <_nl_expand_alias+0x68>
   14458:	e08a900b 	add	r9, sl, fp
   1445c:	e1a090a9 	lsr	r9, r9, #1
   14460:	e1a02004 	mov	r2, r4
   14464:	e1a00006 	mov	r0, r6
   14468:	e7981189 	ldr	r1, [r8, r9, lsl #3]
   1446c:	eb006093 	bl	2c6c0 <__strcasecmp_l>
   14470:	e3500000 	cmp	r0, #0
   14474:	e0882189 	add	r2, r8, r9, lsl #3
   14478:	aafffff2 	bge	14448 <_nl_expand_alias+0x154>
   1447c:	e1a0a009 	mov	sl, r9
   14480:	eafffff2 	b	14450 <_nl_expand_alias+0x15c>
   14484:	e5926004 	ldr	r6, [r2, #4]
   14488:	eaffffce 	b	143c8 <_nl_expand_alias+0xd4>
   1448c:	e1a00007 	mov	r0, r7
   14490:	eb004139 	bl	2497c <__lll_lock_wait_private>
   14494:	eaffffa7 	b	14338 <_nl_expand_alias+0x44>
   14498:	e59f0018 	ldr	r0, [pc, #24]	; 144b8 <_nl_expand_alias+0x1c4>
   1449c:	e3a01081 	mov	r1, #129	; 0x81
   144a0:	e3a02001 	mov	r2, #1
   144a4:	e3a03000 	mov	r3, #0
   144a8:	e3a070f0 	mov	r7, #240	; 0xf0
   144ac:	ef000000 	svc	0x00000000
   144b0:	e1a00006 	mov	r0, r6
   144b4:	e8bd8ff8 	pop	{r3, r4, r5, r6, r7, r8, r9, sl, fp, pc}
   144b8:	0008b138 	.word	0x0008b138
   144bc:	0008b128 	.word	0x0008b128
   144c0:	000736a8 	.word	0x000736a8
   144c4:	00061a28 	.word	0x00061a28
   144c8:	0008b918 	.word	0x0008b918

000144cc <_nl_make_l10nflist>:
   144cc:	e1a0c000 	mov	ip, r0
   144d0:	e92d4ff0 	push	{r4, r5, r6, r7, r8, r9, sl, fp, lr}
   144d4:	e24dd03c 	sub	sp, sp, #60	; 0x3c
   144d8:	e1a04003 	mov	r4, r3
   144dc:	e59d0060 	ldr	r0, [sp, #96]	; 0x60
   144e0:	e1a05002 	mov	r5, r2
   144e4:	e58dc028 	str	ip, [sp, #40]	; 0x28
   144e8:	e58d1024 	str	r1, [sp, #36]	; 0x24
   144ec:	eb005c27 	bl	2b590 <strlen>
   144f0:	e2148004 	ands	r8, r4, #4
   144f4:	e1a09000 	mov	r9, r0
   144f8:	01a07008 	moveq	r7, r8
   144fc:	e285a002 	add	sl, r5, #2
   14500:	0a000002 	beq	14510 <_nl_make_l10nflist+0x44>
   14504:	e59d0064 	ldr	r0, [sp, #100]	; 0x64
   14508:	eb005c20 	bl	2b590 <strlen>
   1450c:	e2807001 	add	r7, r0, #1
   14510:	e2143002 	ands	r3, r4, #2
   14514:	e58d302c 	str	r3, [sp, #44]	; 0x2c
   14518:	e089900a 	add	r9, r9, sl
   1451c:	0a0000ca 	beq	1484c <_nl_make_l10nflist+0x380>
   14520:	e59d0068 	ldr	r0, [sp, #104]	; 0x68
   14524:	eb005c19 	bl	2b590 <strlen>
   14528:	e280a001 	add	sl, r0, #1
   1452c:	e2143001 	ands	r3, r4, #1
   14530:	e58d3030 	str	r3, [sp, #48]	; 0x30
   14534:	e0899007 	add	r9, r9, r7
   14538:	0a0000c1 	beq	14844 <_nl_make_l10nflist+0x378>
   1453c:	e59d006c 	ldr	r0, [sp, #108]	; 0x6c
   14540:	eb005c12 	bl	2b590 <strlen>
   14544:	e2807001 	add	r7, r0, #1
   14548:	e214b008 	ands	fp, r4, #8
   1454c:	e2143008 	ands	r3, r4, #8
   14550:	e58d3034 	str	r3, [sp, #52]	; 0x34
   14554:	e08aa009 	add	sl, sl, r9
   14558:	0a000002 	beq	14568 <_nl_make_l10nflist+0x9c>
   1455c:	e59d0070 	ldr	r0, [sp, #112]	; 0x70
   14560:	eb005c0a 	bl	2b590 <strlen>
   14564:	e280b001 	add	fp, r0, #1
   14568:	e59d0074 	ldr	r0, [sp, #116]	; 0x74
   1456c:	eb005c07 	bl	2b590 <strlen>
   14570:	e1a09000 	mov	r9, r0
   14574:	e087000a 	add	r0, r7, sl
   14578:	e080000b 	add	r0, r0, fp
   1457c:	e0800009 	add	r0, r0, r9
   14580:	eb0053f5 	bl	2955c <__libc_malloc>
   14584:	e2507000 	subs	r7, r0, #0
   14588:	0a00011e 	beq	14a08 <_nl_make_l10nflist+0x53c>
   1458c:	e1a02005 	mov	r2, r5
   14590:	e59d1024 	ldr	r1, [sp, #36]	; 0x24
   14594:	eb006059 	bl	2c700 <memcpy>
   14598:	e3550000 	cmp	r5, #0
   1459c:	0a000009 	beq	145c8 <_nl_make_l10nflist+0xfc>
   145a0:	e1a06005 	mov	r6, r5
   145a4:	e1a0b007 	mov	fp, r7
   145a8:	e3a0a03a 	mov	sl, #58	; 0x3a
   145ac:	e1a0000b 	mov	r0, fp
   145b0:	eb005bf6 	bl	2b590 <strlen>
   145b4:	e1e03000 	mvn	r3, r0
   145b8:	e0966003 	adds	r6, r6, r3
   145bc:	e08bb000 	add	fp, fp, r0
   145c0:	14cba001 	strbne	sl, [fp], #1
   145c4:	1afffff8 	bne	145ac <_nl_make_l10nflist+0xe0>
   145c8:	e3a0302f 	mov	r3, #47	; 0x2f
   145cc:	e0870005 	add	r0, r7, r5
   145d0:	e5403001 	strb	r3, [r0, #-1]
   145d4:	e59d1060 	ldr	r1, [sp, #96]	; 0x60
   145d8:	eb00602c 	bl	2c690 <__stpcpy>
   145dc:	e3580000 	cmp	r8, #0
   145e0:	e1a03000 	mov	r3, r0
   145e4:	1a0000f1 	bne	149b0 <_nl_make_l10nflist+0x4e4>
   145e8:	e59d202c 	ldr	r2, [sp, #44]	; 0x2c
   145ec:	e2830001 	add	r0, r3, #1
   145f0:	e3520000 	cmp	r2, #0
   145f4:	1a0000e6 	bne	14994 <_nl_make_l10nflist+0x4c8>
   145f8:	e59d2030 	ldr	r2, [sp, #48]	; 0x30
   145fc:	e3520000 	cmp	r2, #0
   14600:	1a0000dc 	bne	14978 <_nl_make_l10nflist+0x4ac>
   14604:	e59d2034 	ldr	r2, [sp, #52]	; 0x34
   14608:	e3520000 	cmp	r2, #0
   1460c:	1a0000d2 	bne	1495c <_nl_make_l10nflist+0x490>
   14610:	e3a0102f 	mov	r1, #47	; 0x2f
   14614:	e2892001 	add	r2, r9, #1
   14618:	e5c31000 	strb	r1, [r3]
   1461c:	e59d1074 	ldr	r1, [sp, #116]	; 0x74
   14620:	eb006036 	bl	2c700 <memcpy>
   14624:	e59d3028 	ldr	r3, [sp, #40]	; 0x28
   14628:	e5933000 	ldr	r3, [r3]
   1462c:	e3530000 	cmp	r3, #0
   14630:	e58d302c 	str	r3, [sp, #44]	; 0x2c
   14634:	0a0000f5 	beq	14a10 <_nl_make_l10nflist+0x544>
   14638:	e1a08003 	mov	r8, r3
   1463c:	e3a09000 	mov	r9, #0
   14640:	e5980000 	ldr	r0, [r8]
   14644:	e3500000 	cmp	r0, #0
   14648:	0a000005 	beq	14664 <_nl_make_l10nflist+0x198>
   1464c:	e1a01007 	mov	r1, r7
   14650:	eb005aec 	bl	2b208 <strcmp>
   14654:	e3500000 	cmp	r0, #0
   14658:	0a0000db 	beq	149cc <_nl_make_l10nflist+0x500>
   1465c:	ba000003 	blt	14670 <_nl_make_l10nflist+0x1a4>
   14660:	e1a09008 	mov	r9, r8
   14664:	e598800c 	ldr	r8, [r8, #12]
   14668:	e3580000 	cmp	r8, #0
   1466c:	1afffff3 	bne	14640 <_nl_make_l10nflist+0x174>
   14670:	e59d3078 	ldr	r3, [sp, #120]	; 0x78
   14674:	e3530000 	cmp	r3, #0
   14678:	0a0000d2 	beq	149c8 <_nl_make_l10nflist+0x4fc>
   1467c:	e59f2394 	ldr	r2, [pc, #916]	; 14a18 <_nl_make_l10nflist+0x54c>
   14680:	e59f3394 	ldr	r3, [pc, #916]	; 14a1c <_nl_make_l10nflist+0x550>
   14684:	e00210c4 	and	r1, r2, r4, asr #1
   14688:	e59f0390 	ldr	r0, [pc, #912]	; 14a20 <_nl_make_l10nflist+0x554>
   1468c:	e0042003 	and	r2, r4, r3
   14690:	e59f338c 	ldr	r3, [pc, #908]	; 14a24 <_nl_make_l10nflist+0x558>
   14694:	e0812002 	add	r2, r1, r2
   14698:	e0033142 	and	r3, r3, r2, asr #2
   1469c:	e0022000 	and	r2, r2, r0
   146a0:	e59f8380 	ldr	r8, [pc, #896]	; 14a28 <_nl_make_l10nflist+0x55c>
   146a4:	e0833002 	add	r3, r3, r2
   146a8:	e0833243 	add	r3, r3, r3, asr #4
   146ac:	e0088003 	and	r8, r8, r3
   146b0:	e0888428 	add	r8, r8, r8, lsr #8
   146b4:	e3550000 	cmp	r5, #0
   146b8:	e20880ff 	and	r8, r8, #255	; 0xff
   146bc:	0a0000c9 	beq	149e8 <_nl_make_l10nflist+0x51c>
   146c0:	e1a0b005 	mov	fp, r5
   146c4:	e3a06000 	mov	r6, #0
   146c8:	e59da024 	ldr	sl, [sp, #36]	; 0x24
   146cc:	e1a0000a 	mov	r0, sl
   146d0:	eb005bae 	bl	2b590 <strlen>
   146d4:	e1e03000 	mvn	r3, r0
   146d8:	e2800001 	add	r0, r0, #1
   146dc:	e09bb003 	adds	fp, fp, r3
   146e0:	e2866001 	add	r6, r6, #1
   146e4:	e08aa000 	add	sl, sl, r0
   146e8:	1afffff7 	bne	146cc <_nl_make_l10nflist+0x200>
   146ec:	e1a00086 	lsl	r0, r6, #1
   146f0:	e1a00810 	lsl	r0, r0, r8
   146f4:	e2800005 	add	r0, r0, #5
   146f8:	e1a00100 	lsl	r0, r0, #2
   146fc:	eb005396 	bl	2955c <__libc_malloc>
   14700:	e2508000 	subs	r8, r0, #0
   14704:	0a0000bd 	beq	14a00 <_nl_make_l10nflist+0x534>
   14708:	e1a06005 	mov	r6, r5
   1470c:	e59da024 	ldr	sl, [sp, #36]	; 0x24
   14710:	e5887000 	str	r7, [r8]
   14714:	e1a0000a 	mov	r0, sl
   14718:	eb005b9c 	bl	2b590 <strlen>
   1471c:	e1e03000 	mvn	r3, r0
   14720:	e2800001 	add	r0, r0, #1
   14724:	e0966003 	adds	r6, r6, r3
   14728:	e28bb001 	add	fp, fp, #1
   1472c:	e08aa000 	add	sl, sl, r0
   14730:	1afffff7 	bne	14714 <_nl_make_l10nflist+0x248>
   14734:	e35b0001 	cmp	fp, #1
   14738:	02043003 	andeq	r3, r4, #3
   1473c:	02433003 	subeq	r3, r3, #3
   14740:	016f3f13 	clzeq	r3, r3
   14744:	13a03001 	movne	r3, #1
   14748:	01a032a3 	lsreq	r3, r3, #5
   1474c:	e3a02000 	mov	r2, #0
   14750:	e1590002 	cmp	r9, r2
   14754:	e5883004 	str	r3, [r8, #4]
   14758:	059d302c 	ldreq	r3, [sp, #44]	; 0x2c
   1475c:	1599300c 	ldrne	r3, [r9, #12]
   14760:	0588300c 	streq	r3, [r8, #12]
   14764:	059d3028 	ldreq	r3, [sp, #40]	; 0x28
   14768:	1588300c 	strne	r3, [r8, #12]
   1476c:	e5882008 	str	r2, [r8, #8]
   14770:	05838000 	streq	r8, [r3]
   14774:	1589800c 	strne	r8, [r9, #12]
   14778:	e3550000 	cmp	r5, #0
   1477c:	0a00000d 	beq	147b8 <_nl_make_l10nflist+0x2ec>
   14780:	e1a09005 	mov	r9, r5
   14784:	e3a0a000 	mov	sl, #0
   14788:	e59d7024 	ldr	r7, [sp, #36]	; 0x24
   1478c:	e1a00007 	mov	r0, r7
   14790:	eb005b7e 	bl	2b590 <strlen>
   14794:	e1e03000 	mvn	r3, r0
   14798:	e2800001 	add	r0, r0, #1
   1479c:	e0999003 	adds	r9, r9, r3
   147a0:	e28aa001 	add	sl, sl, #1
   147a4:	e0877000 	add	r7, r7, r0
   147a8:	1afffff7 	bne	1478c <_nl_make_l10nflist+0x2c0>
   147ac:	e35a0001 	cmp	sl, #1
   147b0:	0244b001 	subeq	fp, r4, #1
   147b4:	0a000000 	beq	147bc <_nl_make_l10nflist+0x2f0>
   147b8:	e1a0b004 	mov	fp, r4
   147bc:	e35b0000 	cmp	fp, #0
   147c0:	ba000086 	blt	149e0 <_nl_make_l10nflist+0x514>
   147c4:	e1e07004 	mvn	r7, r4
   147c8:	e3a09000 	mov	r9, #0
   147cc:	e59d3024 	ldr	r3, [sp, #36]	; 0x24
   147d0:	e0833005 	add	r3, r3, r5
   147d4:	e58d302c 	str	r3, [sp, #44]	; 0x2c
   147d8:	e01b1007 	ands	r1, fp, r7
   147dc:	0a000032 	beq	148ac <_nl_make_l10nflist+0x3e0>
   147e0:	e25bb001 	subs	fp, fp, #1
   147e4:	2afffffb 	bcs	147d8 <_nl_make_l10nflist+0x30c>
   147e8:	e3a0200b 	mov	r2, #11
   147ec:	e59f1238 	ldr	r1, [pc, #568]	; 14a2c <_nl_make_l10nflist+0x560>
   147f0:	e59d0074 	ldr	r0, [sp, #116]	; 0x74
   147f4:	eb005bc1 	bl	2b700 <strncmp>
   147f8:	e3500000 	cmp	r0, #0
   147fc:	1a00000a 	bne	1482c <_nl_make_l10nflist+0x360>
   14800:	e3540000 	cmp	r4, #0
   14804:	ba000008 	blt	1482c <_nl_make_l10nflist+0x360>
   14808:	e1e05004 	mvn	r5, r4
   1480c:	e3a07001 	mov	r7, #1
   14810:	e59fa218 	ldr	sl, [pc, #536]	; 14a30 <_nl_make_l10nflist+0x564>
   14814:	e59d6028 	ldr	r6, [sp, #40]	; 0x28
   14818:	e59db070 	ldr	fp, [sp, #112]	; 0x70
   1481c:	e1140005 	tst	r4, r5
   14820:	0a00000b 	beq	14854 <_nl_make_l10nflist+0x388>
   14824:	e2544001 	subs	r4, r4, #1
   14828:	2afffffb 	bcs	1481c <_nl_make_l10nflist+0x350>
   1482c:	e3a03000 	mov	r3, #0
   14830:	e2899004 	add	r9, r9, #4
   14834:	e7883109 	str	r3, [r8, r9, lsl #2]
   14838:	e1a00008 	mov	r0, r8
   1483c:	e28dd03c 	add	sp, sp, #60	; 0x3c
   14840:	e8bd8ff0 	pop	{r4, r5, r6, r7, r8, r9, sl, fp, pc}
   14844:	e2147001 	ands	r7, r4, #1
   14848:	eaffff3e 	b	14548 <_nl_make_l10nflist+0x7c>
   1484c:	e214a002 	ands	sl, r4, #2
   14850:	eaffff35 	b	1452c <_nl_make_l10nflist+0x60>
   14854:	e59d3074 	ldr	r3, [sp, #116]	; 0x74
   14858:	e3a0201b 	mov	r2, #27
   1485c:	e58d3014 	str	r3, [sp, #20]
   14860:	e59d306c 	ldr	r3, [sp, #108]	; 0x6c
   14864:	e1a0100a 	mov	r1, sl
   14868:	e58d300c 	str	r3, [sp, #12]
   1486c:	e59d3068 	ldr	r3, [sp, #104]	; 0x68
   14870:	e1a00006 	mov	r0, r6
   14874:	e58d3008 	str	r3, [sp, #8]
   14878:	e59d3064 	ldr	r3, [sp, #100]	; 0x64
   1487c:	e58d7018 	str	r7, [sp, #24]
   14880:	e58d3004 	str	r3, [sp, #4]
   14884:	e59d3060 	ldr	r3, [sp, #96]	; 0x60
   14888:	e58db010 	str	fp, [sp, #16]
   1488c:	e58d3000 	str	r3, [sp]
   14890:	e1a03004 	mov	r3, r4
   14894:	ebffff0c 	bl	144cc <_nl_make_l10nflist>
   14898:	e2892004 	add	r2, r9, #4
   1489c:	e2891001 	add	r1, r9, #1
   148a0:	e1a09001 	mov	r9, r1
   148a4:	e7880102 	str	r0, [r8, r2, lsl #2]
   148a8:	eaffffdd 	b	14824 <_nl_make_l10nflist+0x358>
   148ac:	e1a0a001 	mov	sl, r1
   148b0:	e2896004 	add	r6, r9, #4
   148b4:	e35a0000 	cmp	sl, #0
   148b8:	e0886106 	add	r6, r8, r6, lsl #2
   148bc:	0a000022 	beq	1494c <_nl_make_l10nflist+0x480>
   148c0:	e59d302c 	ldr	r3, [sp, #44]	; 0x2c
   148c4:	e15a0003 	cmp	sl, r3
   148c8:	2affffc4 	bcs	147e0 <_nl_make_l10nflist+0x314>
   148cc:	e1a0000a 	mov	r0, sl
   148d0:	eb005b2e 	bl	2b590 <strlen>
   148d4:	e59d302c 	ldr	r3, [sp, #44]	; 0x2c
   148d8:	e2800001 	add	r0, r0, #1
   148dc:	e08aa000 	add	sl, sl, r0
   148e0:	e15a0003 	cmp	sl, r3
   148e4:	2affffbd 	bcs	147e0 <_nl_make_l10nflist+0x314>
   148e8:	e1a0000a 	mov	r0, sl
   148ec:	eb005b27 	bl	2b590 <strlen>
   148f0:	e3a03001 	mov	r3, #1
   148f4:	e0802003 	add	r2, r0, r3
   148f8:	e58d3018 	str	r3, [sp, #24]
   148fc:	e59d3074 	ldr	r3, [sp, #116]	; 0x74
   14900:	e1a0100a 	mov	r1, sl
   14904:	e58d3014 	str	r3, [sp, #20]
   14908:	e59d3070 	ldr	r3, [sp, #112]	; 0x70
   1490c:	e59d0028 	ldr	r0, [sp, #40]	; 0x28
   14910:	e58d3010 	str	r3, [sp, #16]
   14914:	e59d306c 	ldr	r3, [sp, #108]	; 0x6c
   14918:	e2899001 	add	r9, r9, #1
   1491c:	e58d300c 	str	r3, [sp, #12]
   14920:	e59d3068 	ldr	r3, [sp, #104]	; 0x68
   14924:	e58d3008 	str	r3, [sp, #8]
   14928:	e59d3064 	ldr	r3, [sp, #100]	; 0x64
   1492c:	e58d3004 	str	r3, [sp, #4]
   14930:	e59d3060 	ldr	r3, [sp, #96]	; 0x60
   14934:	e58d3000 	str	r3, [sp]
   14938:	e1a0300b 	mov	r3, fp
   1493c:	ebfffee2 	bl	144cc <_nl_make_l10nflist>
   14940:	e35a0000 	cmp	sl, #0
   14944:	e4860004 	str	r0, [r6], #4
   14948:	1affffdc 	bne	148c0 <_nl_make_l10nflist+0x3f4>
   1494c:	e3550000 	cmp	r5, #0
   14950:	0affffa2 	beq	147e0 <_nl_make_l10nflist+0x314>
   14954:	e59da024 	ldr	sl, [sp, #36]	; 0x24
   14958:	eaffffe2 	b	148e8 <_nl_make_l10nflist+0x41c>
   1495c:	e3a02040 	mov	r2, #64	; 0x40
   14960:	e59d1070 	ldr	r1, [sp, #112]	; 0x70
   14964:	e5c32000 	strb	r2, [r3]
   14968:	eb005f48 	bl	2c690 <__stpcpy>
   1496c:	e1a03000 	mov	r3, r0
   14970:	e2800001 	add	r0, r0, #1
   14974:	eaffff25 	b	14610 <_nl_make_l10nflist+0x144>
   14978:	e3a0202e 	mov	r2, #46	; 0x2e
   1497c:	e59d106c 	ldr	r1, [sp, #108]	; 0x6c
   14980:	e5c32000 	strb	r2, [r3]
   14984:	eb005f41 	bl	2c690 <__stpcpy>
   14988:	e1a03000 	mov	r3, r0
   1498c:	e2800001 	add	r0, r0, #1
   14990:	eaffff1b 	b	14604 <_nl_make_l10nflist+0x138>
   14994:	e3a0202e 	mov	r2, #46	; 0x2e
   14998:	e59d1068 	ldr	r1, [sp, #104]	; 0x68
   1499c:	e5c32000 	strb	r2, [r3]
   149a0:	eb005f3a 	bl	2c690 <__stpcpy>
   149a4:	e1a03000 	mov	r3, r0
   149a8:	e2800001 	add	r0, r0, #1
   149ac:	eaffff11 	b	145f8 <_nl_make_l10nflist+0x12c>
   149b0:	e3a0305f 	mov	r3, #95	; 0x5f
   149b4:	e59d1064 	ldr	r1, [sp, #100]	; 0x64
   149b8:	e4c03001 	strb	r3, [r0], #1
   149bc:	eb005f33 	bl	2c690 <__stpcpy>
   149c0:	e1a03000 	mov	r3, r0
   149c4:	eaffff07 	b	145e8 <_nl_make_l10nflist+0x11c>
   149c8:	e59d8078 	ldr	r8, [sp, #120]	; 0x78
   149cc:	e1a00007 	mov	r0, r7
   149d0:	eb00546f 	bl	29b94 <__free>
   149d4:	e1a00008 	mov	r0, r8
   149d8:	e28dd03c 	add	sp, sp, #60	; 0x3c
   149dc:	e8bd8ff0 	pop	{r4, r5, r6, r7, r8, r9, sl, fp, pc}
   149e0:	e3a09000 	mov	r9, #0
   149e4:	eaffff7f 	b	147e8 <_nl_make_l10nflist+0x31c>
   149e8:	e3a00014 	mov	r0, #20
   149ec:	eb0052da 	bl	2955c <__libc_malloc>
   149f0:	e2508000 	subs	r8, r0, #0
   149f4:	13a03001 	movne	r3, #1
   149f8:	15887000 	strne	r7, [r8]
   149fc:	1affff52 	bne	1474c <_nl_make_l10nflist+0x280>
   14a00:	e1a00007 	mov	r0, r7
   14a04:	eb005462 	bl	29b94 <__free>
   14a08:	e3a08000 	mov	r8, #0
   14a0c:	eaffff89 	b	14838 <_nl_make_l10nflist+0x36c>
   14a10:	e59d902c 	ldr	r9, [sp, #44]	; 0x2c
   14a14:	eaffff15 	b	14670 <_nl_make_l10nflist+0x1a4>
   14a18:	ffffd555 	.word	0xffffd555
   14a1c:	00005555 	.word	0x00005555
   14a20:	00003333 	.word	0x00003333
   14a24:	fffff333 	.word	0xfffff333
   14a28:	00000f0f 	.word	0x00000f0f
   14a2c:	00061a90 	.word	0x00061a90
   14a30:	00061a9c 	.word	0x00061a9c

00014a34 <_nl_normalize_codeset>:
   14a34:	e92d47f0 	push	{r4, r5, r6, r7, r8, r9, sl, lr}
   14a38:	e2515000 	subs	r5, r1, #0
   14a3c:	0a000040 	beq	14b44 <_nl_normalize_codeset+0x110>
   14a40:	e2407001 	sub	r7, r0, #1
   14a44:	e1a06000 	mov	r6, r0
   14a48:	e1a02007 	mov	r2, r7
   14a4c:	e3a00000 	mov	r0, #0
   14a50:	e3a0e001 	mov	lr, #1
   14a54:	e59f8108 	ldr	r8, [pc, #264]	; 14b64 <_nl_normalize_codeset+0x130>
   14a58:	e0879005 	add	r9, r7, r5
   14a5c:	e5984034 	ldr	r4, [r8, #52]	; 0x34
   14a60:	e5f23001 	ldrb	r3, [r2, #1]!
   14a64:	e1a01083 	lsl	r1, r3, #1
   14a68:	e194c0b1 	ldrh	ip, [r4, r1]
   14a6c:	e2433030 	sub	r3, r3, #48	; 0x30
   14a70:	e31c0008 	tst	ip, #8
   14a74:	0a000002 	beq	14a84 <_nl_normalize_codeset+0x50>
   14a78:	e353000a 	cmp	r3, #10
   14a7c:	23a0e000 	movcs	lr, #0
   14a80:	e2800001 	add	r0, r0, #1
   14a84:	e1590002 	cmp	r9, r2
   14a88:	1afffff4 	bne	14a60 <_nl_normalize_codeset+0x2c>
   14a8c:	e35e0000 	cmp	lr, #0
   14a90:	1a000020 	bne	14b18 <_nl_normalize_codeset+0xe4>
   14a94:	e2800001 	add	r0, r0, #1
   14a98:	eb0052af 	bl	2955c <__libc_malloc>
   14a9c:	e250c000 	subs	ip, r0, #0
   14aa0:	11a0000c 	movne	r0, ip
   14aa4:	0a000024 	beq	14b3c <_nl_normalize_codeset+0x108>
   14aa8:	e598e038 	ldr	lr, [r8, #56]	; 0x38
   14aac:	ea000007 	b	14ad0 <_nl_normalize_codeset+0x9c>
   14ab0:	e1a0100c 	mov	r1, ip
   14ab4:	e79e2102 	ldr	r2, [lr, r2, lsl #2]
   14ab8:	e2833002 	add	r3, r3, #2
   14abc:	e0433006 	sub	r3, r3, r6
   14ac0:	e4c12001 	strb	r2, [r1], #1
   14ac4:	e1550003 	cmp	r5, r3
   14ac8:	e1a0c001 	mov	ip, r1
   14acc:	9a00000e 	bls	14b0c <_nl_normalize_codeset+0xd8>
   14ad0:	e1a03007 	mov	r3, r7
   14ad4:	e5f72001 	ldrb	r2, [r7, #1]!
   14ad8:	e1a01082 	lsl	r1, r2, #1
   14adc:	e19410b1 	ldrh	r1, [r4, r1]
   14ae0:	e2428030 	sub	r8, r2, #48	; 0x30
   14ae4:	e3110b01 	tst	r1, #1024	; 0x400
   14ae8:	1afffff0 	bne	14ab0 <_nl_normalize_codeset+0x7c>
   14aec:	e3580009 	cmp	r8, #9
   14af0:	91a0100c 	movls	r1, ip
   14af4:	e2833002 	add	r3, r3, #2
   14af8:	94c12001 	strbls	r2, [r1], #1
   14afc:	e0433006 	sub	r3, r3, r6
   14b00:	91a0c001 	movls	ip, r1
   14b04:	e1550003 	cmp	r5, r3
   14b08:	8afffff0 	bhi	14ad0 <_nl_normalize_codeset+0x9c>
   14b0c:	e3a03000 	mov	r3, #0
   14b10:	e5cc3000 	strb	r3, [ip]
   14b14:	e8bd87f0 	pop	{r4, r5, r6, r7, r8, r9, sl, pc}
   14b18:	e2800004 	add	r0, r0, #4
   14b1c:	eb00528e 	bl	2955c <__libc_malloc>
   14b20:	e3500000 	cmp	r0, #0
   14b24:	0a000004 	beq	14b3c <_nl_normalize_codeset+0x108>
   14b28:	e1a0c000 	mov	ip, r0
   14b2c:	e59f3034 	ldr	r3, [pc, #52]	; 14b68 <_nl_normalize_codeset+0x134>
   14b30:	e5984034 	ldr	r4, [r8, #52]	; 0x34
   14b34:	e48c3003 	str	r3, [ip], #3
   14b38:	eaffffda 	b	14aa8 <_nl_normalize_codeset+0x74>
   14b3c:	e3a00000 	mov	r0, #0
   14b40:	e8bd87f0 	pop	{r4, r5, r6, r7, r8, r9, sl, pc}
   14b44:	e3a00004 	mov	r0, #4
   14b48:	eb005283 	bl	2955c <__libc_malloc>
   14b4c:	e3500000 	cmp	r0, #0
   14b50:	0afffff9 	beq	14b3c <_nl_normalize_codeset+0x108>
   14b54:	e1a0c000 	mov	ip, r0
   14b58:	e59f3008 	ldr	r3, [pc, #8]	; 14b68 <_nl_normalize_codeset+0x134>
   14b5c:	e48c3003 	str	r3, [ip], #3
   14b60:	eaffffe9 	b	14b0c <_nl_normalize_codeset+0xd8>
   14b64:	000736a8 	.word	0x000736a8
   14b68:	006f7369 	.word	0x006f7369

00014b6c <_nl_explode_name>:
   14b6c:	e92d4ff8 	push	{r3, r4, r5, r6, r7, r8, r9, sl, fp, lr}
   14b70:	e1a05003 	mov	r5, r3
   14b74:	e3a03000 	mov	r3, #0
   14b78:	e1a07002 	mov	r7, r2
   14b7c:	e5823000 	str	r3, [r2]
   14b80:	e59d8028 	ldr	r8, [sp, #40]	; 0x28
   14b84:	e59d202c 	ldr	r2, [sp, #44]	; 0x2c
   14b88:	e5853000 	str	r3, [r5]
   14b8c:	e5883000 	str	r3, [r8]
   14b90:	e5823000 	str	r3, [r2]
   14b94:	e5810000 	str	r0, [r1]
   14b98:	e5d01000 	ldrb	r1, [r0]
   14b9c:	e351005f 	cmp	r1, #95	; 0x5f
   14ba0:	11510003 	cmpne	r1, r3
   14ba4:	13a0c001 	movne	ip, #1
   14ba8:	03a0c000 	moveq	ip, #0
   14bac:	11a04000 	movne	r4, r0
   14bb0:	1a000009 	bne	14bdc <_nl_explode_name+0x70>
   14bb4:	ea00005c 	b	14d2c <_nl_explode_name+0x1c0>
   14bb8:	e5d41001 	ldrb	r1, [r4, #1]
   14bbc:	e284e001 	add	lr, r4, #1
   14bc0:	e251c05f 	subs	ip, r1, #95	; 0x5f
   14bc4:	13a0c001 	movne	ip, #1
   14bc8:	e3510000 	cmp	r1, #0
   14bcc:	03a0c000 	moveq	ip, #0
   14bd0:	e35c0000 	cmp	ip, #0
   14bd4:	0a000022 	beq	14c64 <_nl_explode_name+0xf8>
   14bd8:	e1a0400e 	mov	r4, lr
   14bdc:	e351002e 	cmp	r1, #46	; 0x2e
   14be0:	13510040 	cmpne	r1, #64	; 0x40
   14be4:	13a01001 	movne	r1, #1
   14be8:	03a01000 	moveq	r1, #0
   14bec:	1afffff1 	bne	14bb8 <_nl_explode_name+0x4c>
   14bf0:	e1500004 	cmp	r0, r4
   14bf4:	e1a09001 	mov	r9, r1
   14bf8:	0a00000b 	beq	14c2c <_nl_explode_name+0xc0>
   14bfc:	e5d41000 	ldrb	r1, [r4]
   14c00:	e351002e 	cmp	r1, #46	; 0x2e
   14c04:	0a00002a 	beq	14cb4 <_nl_explode_name+0x148>
   14c08:	e3510040 	cmp	r1, #64	; 0x40
   14c0c:	1a000006 	bne	14c2c <_nl_explode_name+0xc0>
   14c10:	e1a03004 	mov	r3, r4
   14c14:	e3a02000 	mov	r2, #0
   14c18:	e4c32001 	strb	r2, [r3], #1
   14c1c:	e5873000 	str	r3, [r7]
   14c20:	e5d43001 	ldrb	r3, [r4, #1]
   14c24:	e1530002 	cmp	r3, r2
   14c28:	13899008 	orrne	r9, r9, #8
   14c2c:	e5953000 	ldr	r3, [r5]
   14c30:	e3530000 	cmp	r3, #0
   14c34:	0a000002 	beq	14c44 <_nl_explode_name+0xd8>
   14c38:	e5d33000 	ldrb	r3, [r3]
   14c3c:	e3530000 	cmp	r3, #0
   14c40:	03c99004 	biceq	r9, r9, #4
   14c44:	e5983000 	ldr	r3, [r8]
   14c48:	e3530000 	cmp	r3, #0
   14c4c:	0a000002 	beq	14c5c <_nl_explode_name+0xf0>
   14c50:	e5d33000 	ldrb	r3, [r3]
   14c54:	e3530000 	cmp	r3, #0
   14c58:	03c99002 	biceq	r9, r9, #2
   14c5c:	e1a00009 	mov	r0, r9
   14c60:	e8bd8ff8 	pop	{r3, r4, r5, r6, r7, r8, r9, sl, fp, pc}
   14c64:	e150000e 	cmp	r0, lr
   14c68:	0a00002f 	beq	14d2c <_nl_explode_name+0x1c0>
   14c6c:	e351005f 	cmp	r1, #95	; 0x5f
   14c70:	1a000039 	bne	14d5c <_nl_explode_name+0x1f0>
   14c74:	e2844002 	add	r4, r4, #2
   14c78:	e5cec000 	strb	ip, [lr]
   14c7c:	e5854000 	str	r4, [r5]
   14c80:	e5de1001 	ldrb	r1, [lr, #1]
   14c84:	e20130bf 	and	r3, r1, #191	; 0xbf
   14c88:	e351002e 	cmp	r1, #46	; 0x2e
   14c8c:	13530000 	cmpne	r3, #0
   14c90:	0a000004 	beq	14ca8 <_nl_explode_name+0x13c>
   14c94:	e5f41001 	ldrb	r1, [r4, #1]!
   14c98:	e20130bf 	and	r3, r1, #191	; 0xbf
   14c9c:	e351002e 	cmp	r1, #46	; 0x2e
   14ca0:	13530000 	cmpne	r3, #0
   14ca4:	1afffffa 	bne	14c94 <_nl_explode_name+0x128>
   14ca8:	e351002e 	cmp	r1, #46	; 0x2e
   14cac:	e3a09004 	mov	r9, #4
   14cb0:	1affffd4 	bne	14c08 <_nl_explode_name+0x9c>
   14cb4:	e1a00004 	mov	r0, r4
   14cb8:	e3a03000 	mov	r3, #0
   14cbc:	e4c03001 	strb	r3, [r0], #1
   14cc0:	e5880000 	str	r0, [r8]
   14cc4:	e5d41001 	ldrb	r1, [r4, #1]
   14cc8:	e389b002 	orr	fp, r9, #2
   14ccc:	e31100bf 	tst	r1, #191	; 0xbf
   14cd0:	0a00001e 	beq	14d50 <_nl_explode_name+0x1e4>
   14cd4:	e1a04000 	mov	r4, r0
   14cd8:	e1a0a004 	mov	sl, r4
   14cdc:	e5f43001 	ldrb	r3, [r4, #1]!
   14ce0:	e31300bf 	tst	r3, #191	; 0xbf
   14ce4:	1afffffb 	bne	14cd8 <_nl_explode_name+0x16c>
   14ce8:	e1500004 	cmp	r0, r4
   14cec:	0a000010 	beq	14d34 <_nl_explode_name+0x1c8>
   14cf0:	e0441000 	sub	r1, r4, r0
   14cf4:	ebffff4e 	bl	14a34 <_nl_normalize_codeset>
   14cf8:	e59d302c 	ldr	r3, [sp, #44]	; 0x2c
   14cfc:	e3500000 	cmp	r0, #0
   14d00:	e1a06000 	mov	r6, r0
   14d04:	e5830000 	str	r0, [r3]
   14d08:	0a000016 	beq	14d68 <_nl_explode_name+0x1fc>
   14d0c:	e1a01000 	mov	r1, r0
   14d10:	e5980000 	ldr	r0, [r8]
   14d14:	eb00593b 	bl	2b208 <strcmp>
   14d18:	e3500000 	cmp	r0, #0
   14d1c:	0a000006 	beq	14d3c <_nl_explode_name+0x1d0>
   14d20:	e5da1001 	ldrb	r1, [sl, #1]
   14d24:	e3899003 	orr	r9, r9, #3
   14d28:	eaffffb6 	b	14c08 <_nl_explode_name+0x9c>
   14d2c:	e1a0900c 	mov	r9, ip
   14d30:	eaffffbd 	b	14c2c <_nl_explode_name+0xc0>
   14d34:	e1a0900b 	mov	r9, fp
   14d38:	eaffffb2 	b	14c08 <_nl_explode_name+0x9c>
   14d3c:	e1a00006 	mov	r0, r6
   14d40:	eb005393 	bl	29b94 <__free>
   14d44:	e1a0900b 	mov	r9, fp
   14d48:	e5da1001 	ldrb	r1, [sl, #1]
   14d4c:	eaffffad 	b	14c08 <_nl_explode_name+0x9c>
   14d50:	e1a0900b 	mov	r9, fp
   14d54:	e1a04000 	mov	r4, r0
   14d58:	eaffffaa 	b	14c08 <_nl_explode_name+0x9c>
   14d5c:	e1a0400e 	mov	r4, lr
   14d60:	e1a0900c 	mov	r9, ip
   14d64:	eaffffa5 	b	14c00 <_nl_explode_name+0x94>
   14d68:	e3e09000 	mvn	r9, #0
   14d6c:	eaffffba 	b	14c5c <_nl_explode_name+0xf0>

00014d70 <__gettext_free_exp>:
   14d70:	e92d4010 	push	{r4, lr}
   14d74:	e2504000 	subs	r4, r0, #0
   14d78:	08bd8010 	popeq	{r4, pc}
   14d7c:	e5943000 	ldr	r3, [r4]
   14d80:	e3530002 	cmp	r3, #2
   14d84:	0a000008 	beq	14dac <__gettext_free_exp+0x3c>
   14d88:	e3530003 	cmp	r3, #3
   14d8c:	0a000004 	beq	14da4 <__gettext_free_exp+0x34>
   14d90:	e3530001 	cmp	r3, #1
   14d94:	0a000006 	beq	14db4 <__gettext_free_exp+0x44>
   14d98:	e1a00004 	mov	r0, r4
   14d9c:	e8bd4010 	pop	{r4, lr}
   14da0:	ea00537b 	b	29b94 <__free>
   14da4:	e5940010 	ldr	r0, [r4, #16]
   14da8:	ebfffff0 	bl	14d70 <__gettext_free_exp>
   14dac:	e594000c 	ldr	r0, [r4, #12]
   14db0:	ebffffee 	bl	14d70 <__gettext_free_exp>
   14db4:	e5940008 	ldr	r0, [r4, #8]
   14db8:	ebffffec 	bl	14d70 <__gettext_free_exp>
   14dbc:	e1a00004 	mov	r0, r4
   14dc0:	e8bd4010 	pop	{r4, lr}
   14dc4:	ea005372 	b	29b94 <__free>

00014dc8 <new_exp>:
   14dc8:	e3500000 	cmp	r0, #0
   14dcc:	e92d41f0 	push	{r4, r5, r6, r7, r8, lr}
   14dd0:	e1a08001 	mov	r8, r1
   14dd4:	0a00001e 	beq	14e54 <new_exp+0x8c>
   14dd8:	e0824100 	add	r4, r2, r0, lsl #2
   14ddc:	e1a06000 	mov	r6, r0
   14de0:	e1a05002 	mov	r5, r2
   14de4:	e1a0c004 	mov	ip, r4
   14de8:	e2403001 	sub	r3, r0, #1
   14dec:	e1a07100 	lsl	r7, r0, #2
   14df0:	ea000001 	b	14dfc <new_exp+0x34>
   14df4:	e3730001 	cmn	r3, #1
   14df8:	0a000009 	beq	14e24 <new_exp+0x5c>
   14dfc:	e53ce004 	ldr	lr, [ip, #-4]!
   14e00:	e2433001 	sub	r3, r3, #1
   14e04:	e35e0000 	cmp	lr, #0
   14e08:	1afffff9 	bne	14df4 <new_exp+0x2c>
   14e0c:	e5340004 	ldr	r0, [r4, #-4]!
   14e10:	ebffffd6 	bl	14d70 <__gettext_free_exp>
   14e14:	e1550004 	cmp	r5, r4
   14e18:	1afffffb 	bne	14e0c <new_exp+0x44>
   14e1c:	e3a00000 	mov	r0, #0
   14e20:	e8bd81f0 	pop	{r4, r5, r6, r7, r8, pc}
   14e24:	e3a00014 	mov	r0, #20
   14e28:	eb0051cb 	bl	2955c <__libc_malloc>
   14e2c:	e3500000 	cmp	r0, #0
   14e30:	0afffff5 	beq	14e0c <new_exp+0x44>
   14e34:	e8800140 	stm	r0, {r6, r8}
   14e38:	e2873004 	add	r3, r7, #4
   14e3c:	e0803003 	add	r3, r0, r3
   14e40:	e5342004 	ldr	r2, [r4, #-4]!
   14e44:	e1540005 	cmp	r4, r5
   14e48:	e4032004 	str	r2, [r3], #-4
   14e4c:	1afffffb 	bne	14e40 <new_exp+0x78>
   14e50:	e8bd81f0 	pop	{r4, r5, r6, r7, r8, pc}
   14e54:	e3a00014 	mov	r0, #20
   14e58:	eb0051bf 	bl	2955c <__libc_malloc>
   14e5c:	e3500000 	cmp	r0, #0
   14e60:	0affffed 	beq	14e1c <new_exp+0x54>
   14e64:	e3a03000 	mov	r3, #0
   14e68:	e8800108 	stm	r0, {r3, r8}
   14e6c:	e8bd81f0 	pop	{r4, r5, r6, r7, r8, pc}

00014e70 <__gettextparse>:
   14e70:	e3a03000 	mov	r3, #0
   14e74:	e92d4ff0 	push	{r4, r5, r6, r7, r8, r9, sl, fp, lr}
   14e78:	e24dde41 	sub	sp, sp, #1040	; 0x410
   14e7c:	e24dd004 	sub	sp, sp, #4
   14e80:	e59f28d8 	ldr	r2, [pc, #2264]	; 15760 <__gettextparse+0x8f0>
   14e84:	e58d0010 	str	r0, [sp, #16]
   14e88:	e5922000 	ldr	r2, [r2]
   14e8c:	e58d240c 	str	r2, [sp, #1036]	; 0x40c
   14e90:	e3a02000 	mov	r2, #0
   14e94:	e1a06003 	mov	r6, r3
   14e98:	e5cd3344 	strb	r3, [sp, #836]	; 0x344
   14e9c:	e58d300c 	str	r3, [sp, #12]
   14ea0:	e28d4fd1 	add	r4, sp, #836	; 0x344
   14ea4:	e3e03001 	mvn	r3, #1
   14ea8:	e1a07004 	mov	r7, r4
   14eac:	e3a090c8 	mov	r9, #200	; 0xc8
   14eb0:	e28d5024 	add	r5, sp, #36	; 0x24
   14eb4:	e59f88a8 	ldr	r8, [pc, #2216]	; 15764 <__gettextparse+0x8f4>
   14eb8:	e59fa8a8 	ldr	sl, [pc, #2216]	; 15768 <__gettextparse+0x8f8>
   14ebc:	e58d5004 	str	r5, [sp, #4]
   14ec0:	e58d3000 	str	r3, [sp]
   14ec4:	e19830d6 	ldrsb	r3, [r8, r6]
   14ec8:	e373000a 	cmn	r3, #10
   14ecc:	e1a00003 	mov	r0, r3
   14ed0:	0a000034 	beq	14fa8 <__gettextparse+0x138>
   14ed4:	e59d2000 	ldr	r2, [sp]
   14ed8:	e3720002 	cmn	r2, #2
   14edc:	0a0000c3 	beq	151f0 <__gettextparse+0x380>
   14ee0:	e59d2000 	ldr	r2, [sp]
   14ee4:	e3520000 	cmp	r2, #0
   14ee8:	da0000ac 	ble	151a0 <__gettextparse+0x330>
   14eec:	e59d2000 	ldr	r2, [sp]
   14ef0:	e19a10d2 	ldrsb	r1, [sl, r2]
   14ef4:	e0830001 	add	r0, r3, r1
   14ef8:	e3500036 	cmp	r0, #54	; 0x36
   14efc:	8a000029 	bhi	14fa8 <__gettextparse+0x138>
   14f00:	e08a0000 	add	r0, sl, r0
   14f04:	e2802f42 	add	r2, r0, #264	; 0x108
   14f08:	e1d220d0 	ldrsb	r2, [r2]
   14f0c:	e1520001 	cmp	r2, r1
   14f10:	1a000024 	bne	14fa8 <__gettextparse+0x138>
   14f14:	e2800d05 	add	r0, r0, #320	; 0x140
   14f18:	e1d060d0 	ldrsb	r6, [r0]
   14f1c:	e3560000 	cmp	r6, #0
   14f20:	e1a03006 	mov	r3, r6
   14f24:	d2666000 	rsble	r6, r6, #0
   14f28:	da000009 	ble	14f54 <__gettextparse+0xe4>
   14f2c:	e59d200c 	ldr	r2, [sp, #12]
   14f30:	e2855004 	add	r5, r5, #4
   14f34:	e3520000 	cmp	r2, #0
   14f38:	12422001 	subne	r2, r2, #1
   14f3c:	158d200c 	strne	r2, [sp, #12]
   14f40:	e59d2014 	ldr	r2, [sp, #20]
   14f44:	e5852000 	str	r2, [r5]
   14f48:	e3e02001 	mvn	r2, #1
   14f4c:	e58d2000 	str	r2, [sp]
   14f50:	ea00005f 	b	150d4 <__gettextparse+0x264>
   14f54:	e08a3006 	add	r3, sl, r6
   14f58:	e2833f65 	add	r3, r3, #404	; 0x194
   14f5c:	e1d3b0d0 	ldrsb	fp, [r3]
   14f60:	e2463002 	sub	r3, r6, #2
   14f64:	e26b2001 	rsb	r2, fp, #1
   14f68:	e7950102 	ldr	r0, [r5, r2, lsl #2]
   14f6c:	e353000b 	cmp	r3, #11
   14f70:	979ff103 	ldrls	pc, [pc, r3, lsl #2]
   14f74:	ea000040 	b	1507c <__gettextparse+0x20c>
   14f78:	00015068 	.word	0x00015068
   14f7c:	00015410 	.word	0x00015410
   14f80:	0001543c 	.word	0x0001543c
   14f84:	00015460 	.word	0x00015460
   14f88:	000151b0 	.word	0x000151b0
   14f8c:	000151b0 	.word	0x000151b0
   14f90:	000151b0 	.word	0x000151b0
   14f94:	000151b0 	.word	0x000151b0
   14f98:	0001548c 	.word	0x0001548c
   14f9c:	000154c8 	.word	0x000154c8
   14fa0:	000154a8 	.word	0x000154a8
   14fa4:	00015484 	.word	0x00015484
   14fa8:	e08a6006 	add	r6, sl, r6
   14fac:	e2866f5e 	add	r6, r6, #376	; 0x178
   14fb0:	e1d660d0 	ldrsb	r6, [r6]
   14fb4:	e3560000 	cmp	r6, #0
   14fb8:	1affffe5 	bne	14f54 <__gettextparse+0xe4>
   14fbc:	e59d200c 	ldr	r2, [sp, #12]
   14fc0:	e3520003 	cmp	r2, #3
   14fc4:	1a00001d 	bne	15040 <__gettextparse+0x1d0>
   14fc8:	e59d2000 	ldr	r2, [sp]
   14fcc:	e3520000 	cmp	r2, #0
   14fd0:	ca00007f 	bgt	151d4 <__gettextparse+0x364>
   14fd4:	1a000019 	bne	15040 <__gettextparse+0x1d0>
   14fd8:	e3a04001 	mov	r4, #1
   14fdc:	e28d3fd1 	add	r3, sp, #836	; 0x344
   14fe0:	e1570003 	cmp	r7, r3
   14fe4:	0a000001 	beq	14ff0 <__gettextparse+0x180>
   14fe8:	e1a00007 	mov	r0, r7
   14fec:	eb0052e8 	bl	29b94 <__free>
   14ff0:	e59f3768 	ldr	r3, [pc, #1896]	; 15760 <__gettextparse+0x8f0>
   14ff4:	e5932000 	ldr	r2, [r3]
   14ff8:	e59d340c 	ldr	r3, [sp, #1036]	; 0x40c
   14ffc:	e0332002 	eors	r2, r3, r2
   15000:	e3a03000 	mov	r3, #0
   15004:	1a0001d4 	bne	1575c <__gettextparse+0x8ec>
   15008:	e1a00004 	mov	r0, r4
   1500c:	e28dde41 	add	sp, sp, #1040	; 0x410
   15010:	e28dd004 	add	sp, sp, #4
   15014:	e8bd8ff0 	pop	{r4, r5, r6, r7, r8, r9, sl, fp, pc}
   15018:	e2833d05 	add	r3, r3, #320	; 0x140
   1501c:	e1d330d0 	ldrsb	r3, [r3]
   15020:	e3530000 	cmp	r3, #0
   15024:	e1a06003 	mov	r6, r3
   15028:	ca00012b 	bgt	154dc <__gettextparse+0x66c>
   1502c:	e1540007 	cmp	r4, r7
   15030:	0affffe8 	beq	14fd8 <__gettextparse+0x168>
   15034:	e17430d1 	ldrsb	r3, [r4, #-1]!
   15038:	e2455004 	sub	r5, r5, #4
   1503c:	e19830d3 	ldrsb	r3, [r8, r3]
   15040:	e373000a 	cmn	r3, #10
   15044:	0afffff8 	beq	1502c <__gettextparse+0x1bc>
   15048:	e2833001 	add	r3, r3, #1
   1504c:	e3530036 	cmp	r3, #54	; 0x36
   15050:	8afffff5 	bhi	1502c <__gettextparse+0x1bc>
   15054:	e08a3003 	add	r3, sl, r3
   15058:	e5d32108 	ldrb	r2, [r3, #264]	; 0x108
   1505c:	e3520001 	cmp	r2, #1
   15060:	1afffff1 	bne	1502c <__gettextparse+0x1bc>
   15064:	eaffffeb 	b	15018 <__gettextparse+0x1a8>
   15068:	e5953000 	ldr	r3, [r5]
   1506c:	e3530000 	cmp	r3, #0
   15070:	0affffd8 	beq	14fd8 <__gettextparse+0x168>
   15074:	e59d2010 	ldr	r2, [sp, #16]
   15078:	e5823004 	str	r3, [r2, #4]
   1507c:	e08a6006 	add	r6, sl, r6
   15080:	e2866f69 	add	r6, r6, #420	; 0x1a4
   15084:	e1d620d0 	ldrsb	r2, [r6]
   15088:	e045510b 	sub	r5, r5, fp, lsl #2
   1508c:	e59f36d8 	ldr	r3, [pc, #1752]	; 1576c <__gettextparse+0x8fc>
   15090:	e5850004 	str	r0, [r5, #4]
   15094:	e2422010 	sub	r2, r2, #16
   15098:	e044400b 	sub	r4, r4, fp
   1509c:	e19330d2 	ldrsb	r3, [r3, r2]
   150a0:	e1d410d0 	ldrsb	r1, [r4]
   150a4:	e2855004 	add	r5, r5, #4
   150a8:	e0833001 	add	r3, r3, r1
   150ac:	e3530036 	cmp	r3, #54	; 0x36
   150b0:	8a000004 	bhi	150c8 <__gettextparse+0x258>
   150b4:	e08a3003 	add	r3, sl, r3
   150b8:	e2830f42 	add	r0, r3, #264	; 0x108
   150bc:	e1d000d0 	ldrsb	r0, [r0]
   150c0:	e1500001 	cmp	r0, r1
   150c4:	0a000045 	beq	151e0 <__gettextparse+0x370>
   150c8:	e59f36a0 	ldr	r3, [pc, #1696]	; 15770 <__gettextparse+0x900>
   150cc:	e19330d2 	ldrsb	r3, [r3, r2]
   150d0:	e1a06003 	mov	r6, r3
   150d4:	e2492001 	sub	r2, r9, #1
   150d8:	e5c43001 	strb	r3, [r4, #1]
   150dc:	e0872002 	add	r2, r7, r2
   150e0:	e2844001 	add	r4, r4, #1
   150e4:	e1540002 	cmp	r4, r2
   150e8:	3a000028 	bcc	15190 <__gettextparse+0x320>
   150ec:	e59f3680 	ldr	r3, [pc, #1664]	; 15774 <__gettextparse+0x904>
   150f0:	e0444007 	sub	r4, r4, r7
   150f4:	e1590003 	cmp	r9, r3
   150f8:	e2845001 	add	r5, r4, #1
   150fc:	ca00017f 	bgt	15700 <__gettextparse+0x890>
   15100:	e2833001 	add	r3, r3, #1
   15104:	e1a09089 	lsl	r9, r9, #1
   15108:	e1590003 	cmp	r9, r3
   1510c:	a1a09003 	movge	r9, r3
   15110:	e0890109 	add	r0, r9, r9, lsl #2
   15114:	e2800003 	add	r0, r0, #3
   15118:	eb00510f 	bl	2955c <__libc_malloc>
   1511c:	e2503000 	subs	r3, r0, #0
   15120:	0a000176 	beq	15700 <__gettextparse+0x890>
   15124:	e083b009 	add	fp, r3, r9
   15128:	e1a02005 	mov	r2, r5
   1512c:	e1a01007 	mov	r1, r7
   15130:	e1a05105 	lsl	r5, r5, #2
   15134:	e58d3008 	str	r3, [sp, #8]
   15138:	eb005d70 	bl	2c700 <memcpy>
   1513c:	e1a02005 	mov	r2, r5
   15140:	e1a0000b 	mov	r0, fp
   15144:	e59d1004 	ldr	r1, [sp, #4]
   15148:	eb005d6c 	bl	2c700 <memcpy>
   1514c:	e28d3fd1 	add	r3, sp, #836	; 0x344
   15150:	e1570003 	cmp	r7, r3
   15154:	e59d3008 	ldr	r3, [sp, #8]
   15158:	0a000003 	beq	1516c <__gettextparse+0x2fc>
   1515c:	e1a00007 	mov	r0, r7
   15160:	e58d3004 	str	r3, [sp, #4]
   15164:	eb00528a 	bl	29b94 <__free>
   15168:	e59d3004 	ldr	r3, [sp, #4]
   1516c:	e2492001 	sub	r2, r9, #1
   15170:	e0834004 	add	r4, r3, r4
   15174:	e0832002 	add	r2, r3, r2
   15178:	e2455004 	sub	r5, r5, #4
   1517c:	e1540002 	cmp	r4, r2
   15180:	e08b5005 	add	r5, fp, r5
   15184:	2a00015f 	bcs	15708 <__gettextparse+0x898>
   15188:	e1a07003 	mov	r7, r3
   1518c:	e58db004 	str	fp, [sp, #4]
   15190:	e3560009 	cmp	r6, #9
   15194:	1affff4a 	bne	14ec4 <__gettextparse+0x54>
   15198:	e3a04000 	mov	r4, #0
   1519c:	eaffff8e 	b	14fdc <__gettextparse+0x16c>
   151a0:	e3a02000 	mov	r2, #0
   151a4:	e1a01002 	mov	r1, r2
   151a8:	e58d2000 	str	r2, [sp]
   151ac:	eaffff51 	b	14ef8 <__gettextparse+0x88>
   151b0:	e5950000 	ldr	r0, [r5]
   151b4:	e5153008 	ldr	r3, [r5, #-8]
   151b8:	e5151004 	ldr	r1, [r5, #-4]
   151bc:	e28d2018 	add	r2, sp, #24
   151c0:	e58d001c 	str	r0, [sp, #28]
   151c4:	e3a00002 	mov	r0, #2
   151c8:	e58d3018 	str	r3, [sp, #24]
   151cc:	ebfffefd 	bl	14dc8 <new_exp>
   151d0:	eaffffa9 	b	1507c <__gettextparse+0x20c>
   151d4:	e3e02001 	mvn	r2, #1
   151d8:	e58d2000 	str	r2, [sp]
   151dc:	eaffff97 	b	15040 <__gettextparse+0x1d0>
   151e0:	e2833d05 	add	r3, r3, #320	; 0x140
   151e4:	e1d330d0 	ldrsb	r3, [r3]
   151e8:	e1a06003 	mov	r6, r3
   151ec:	eaffffb8 	b	150d4 <__gettextparse+0x264>
   151f0:	e59d2010 	ldr	r2, [sp, #16]
   151f4:	e5922000 	ldr	r2, [r2]
   151f8:	ea000004 	b	15210 <__gettextparse+0x3a0>
   151fc:	e3510020 	cmp	r1, #32
   15200:	13510009 	cmpne	r1, #9
   15204:	e1a0c002 	mov	ip, r2
   15208:	e2822001 	add	r2, r2, #1
   1520c:	1a000007 	bne	15230 <__gettextparse+0x3c0>
   15210:	e5d21000 	ldrb	r1, [r2]
   15214:	e3510000 	cmp	r1, #0
   15218:	1afffff7 	bne	151fc <__gettextparse+0x38c>
   1521c:	e3a01000 	mov	r1, #0
   15220:	e59dc010 	ldr	ip, [sp, #16]
   15224:	e58d1000 	str	r1, [sp]
   15228:	e58c2000 	str	r2, [ip]
   1522c:	eaffff31 	b	14ef8 <__gettextparse+0x88>
   15230:	e241e00a 	sub	lr, r1, #10
   15234:	e58d1000 	str	r1, [sp]
   15238:	e35e0072 	cmp	lr, #114	; 0x72
   1523c:	979ff10e 	ldrls	pc, [pc, lr, lsl #2]
   15240:	ea0000ab 	b	154f4 <__gettextparse+0x684>
   15244:	00015570 	.word	0x00015570
   15248:	000154f4 	.word	0x000154f4
   1524c:	000154f4 	.word	0x000154f4
   15250:	000154f4 	.word	0x000154f4
   15254:	000154f4 	.word	0x000154f4
   15258:	000154f4 	.word	0x000154f4
   1525c:	000154f4 	.word	0x000154f4
   15260:	000154f4 	.word	0x000154f4
   15264:	000154f4 	.word	0x000154f4
   15268:	000154f4 	.word	0x000154f4
   1526c:	000154f4 	.word	0x000154f4
   15270:	000154f4 	.word	0x000154f4
   15274:	000154f4 	.word	0x000154f4
   15278:	000154f4 	.word	0x000154f4
   1527c:	000154f4 	.word	0x000154f4
   15280:	000154f4 	.word	0x000154f4
   15284:	000154f4 	.word	0x000154f4
   15288:	000154f4 	.word	0x000154f4
   1528c:	000154f4 	.word	0x000154f4
   15290:	000154f4 	.word	0x000154f4
   15294:	000154f4 	.word	0x000154f4
   15298:	000154f4 	.word	0x000154f4
   1529c:	000154f4 	.word	0x000154f4
   152a0:	000155cc 	.word	0x000155cc
   152a4:	000154f4 	.word	0x000154f4
   152a8:	000154f4 	.word	0x000154f4
   152ac:	000154f4 	.word	0x000154f4
   152b0:	00015608 	.word	0x00015608
   152b4:	00015584 	.word	0x00015584
   152b8:	000154f4 	.word	0x000154f4
   152bc:	00015560 	.word	0x00015560
   152c0:	00015560 	.word	0x00015560
   152c4:	00015694 	.word	0x00015694
   152c8:	00015654 	.word	0x00015654
   152cc:	000154f4 	.word	0x000154f4
   152d0:	00015674 	.word	0x00015674
   152d4:	000154f4 	.word	0x000154f4
   152d8:	000156b4 	.word	0x000156b4
   152dc:	0001550c 	.word	0x0001550c
   152e0:	0001550c 	.word	0x0001550c
   152e4:	0001550c 	.word	0x0001550c
   152e8:	0001550c 	.word	0x0001550c
   152ec:	0001550c 	.word	0x0001550c
   152f0:	0001550c 	.word	0x0001550c
   152f4:	0001550c 	.word	0x0001550c
   152f8:	0001550c 	.word	0x0001550c
   152fc:	0001550c 	.word	0x0001550c
   15300:	0001550c 	.word	0x0001550c
   15304:	00015560 	.word	0x00015560
   15308:	00015570 	.word	0x00015570
   1530c:	000156d4 	.word	0x000156d4
   15310:	0001559c 	.word	0x0001559c
   15314:	00015628 	.word	0x00015628
   15318:	00015560 	.word	0x00015560
   1531c:	000154f4 	.word	0x000154f4
   15320:	000154f4 	.word	0x000154f4
   15324:	000154f4 	.word	0x000154f4
   15328:	000154f4 	.word	0x000154f4
   1532c:	000154f4 	.word	0x000154f4
   15330:	000154f4 	.word	0x000154f4
   15334:	000154f4 	.word	0x000154f4
   15338:	000154f4 	.word	0x000154f4
   1533c:	000154f4 	.word	0x000154f4
   15340:	000154f4 	.word	0x000154f4
   15344:	000154f4 	.word	0x000154f4
   15348:	000154f4 	.word	0x000154f4
   1534c:	000154f4 	.word	0x000154f4
   15350:	000154f4 	.word	0x000154f4
   15354:	000154f4 	.word	0x000154f4
   15358:	000154f4 	.word	0x000154f4
   1535c:	000154f4 	.word	0x000154f4
   15360:	000154f4 	.word	0x000154f4
   15364:	000154f4 	.word	0x000154f4
   15368:	000154f4 	.word	0x000154f4
   1536c:	000154f4 	.word	0x000154f4
   15370:	000154f4 	.word	0x000154f4
   15374:	000154f4 	.word	0x000154f4
   15378:	000154f4 	.word	0x000154f4
   1537c:	000154f4 	.word	0x000154f4
   15380:	000154f4 	.word	0x000154f4
   15384:	000154f4 	.word	0x000154f4
   15388:	000154f4 	.word	0x000154f4
   1538c:	000154f4 	.word	0x000154f4
   15390:	000154f4 	.word	0x000154f4
   15394:	000154f4 	.word	0x000154f4
   15398:	000154f4 	.word	0x000154f4
   1539c:	000154f4 	.word	0x000154f4
   153a0:	000154f4 	.word	0x000154f4
   153a4:	000154f4 	.word	0x000154f4
   153a8:	000154f4 	.word	0x000154f4
   153ac:	000154f4 	.word	0x000154f4
   153b0:	000154f4 	.word	0x000154f4
   153b4:	000154f4 	.word	0x000154f4
   153b8:	000154f4 	.word	0x000154f4
   153bc:	000154f4 	.word	0x000154f4
   153c0:	000154f4 	.word	0x000154f4
   153c4:	000154f4 	.word	0x000154f4
   153c8:	000154f4 	.word	0x000154f4
   153cc:	000154f4 	.word	0x000154f4
   153d0:	000154f4 	.word	0x000154f4
   153d4:	00015560 	.word	0x00015560
   153d8:	000154f4 	.word	0x000154f4
   153dc:	000154f4 	.word	0x000154f4
   153e0:	000154f4 	.word	0x000154f4
   153e4:	000154f4 	.word	0x000154f4
   153e8:	000154f4 	.word	0x000154f4
   153ec:	000154f4 	.word	0x000154f4
   153f0:	000154f4 	.word	0x000154f4
   153f4:	000154f4 	.word	0x000154f4
   153f8:	000154f4 	.word	0x000154f4
   153fc:	000154f4 	.word	0x000154f4
   15400:	000154f4 	.word	0x000154f4
   15404:	000154f4 	.word	0x000154f4
   15408:	000154f4 	.word	0x000154f4
   1540c:	00015584 	.word	0x00015584
   15410:	e5151008 	ldr	r1, [r5, #-8]
   15414:	e5950000 	ldr	r0, [r5]
   15418:	e5153010 	ldr	r3, [r5, #-16]
   1541c:	e58d101c 	str	r1, [sp, #28]
   15420:	e58d0020 	str	r0, [sp, #32]
   15424:	e3a01010 	mov	r1, #16
   15428:	e28d2018 	add	r2, sp, #24
   1542c:	e3a00003 	mov	r0, #3
   15430:	e58d3018 	str	r3, [sp, #24]
   15434:	ebfffe63 	bl	14dc8 <new_exp>
   15438:	eaffff0f 	b	1507c <__gettextparse+0x20c>
   1543c:	e5950000 	ldr	r0, [r5]
   15440:	e5153008 	ldr	r3, [r5, #-8]
   15444:	e3a0100f 	mov	r1, #15
   15448:	e58d001c 	str	r0, [sp, #28]
   1544c:	e28d2018 	add	r2, sp, #24
   15450:	e3a00002 	mov	r0, #2
   15454:	e58d3018 	str	r3, [sp, #24]
   15458:	ebfffe5a 	bl	14dc8 <new_exp>
   1545c:	eaffff06 	b	1507c <__gettextparse+0x20c>
   15460:	e5950000 	ldr	r0, [r5]
   15464:	e5153008 	ldr	r3, [r5, #-8]
   15468:	e3a0100e 	mov	r1, #14
   1546c:	e58d001c 	str	r0, [sp, #28]
   15470:	e28d2018 	add	r2, sp, #24
   15474:	e3a00002 	mov	r0, #2
   15478:	e58d3018 	str	r3, [sp, #24]
   1547c:	ebfffe51 	bl	14dc8 <new_exp>
   15480:	eafffefd 	b	1507c <__gettextparse+0x20c>
   15484:	e5150004 	ldr	r0, [r5, #-4]
   15488:	eafffefb 	b	1507c <__gettextparse+0x20c>
   1548c:	e5953000 	ldr	r3, [r5]
   15490:	e3a01002 	mov	r1, #2
   15494:	e28d2018 	add	r2, sp, #24
   15498:	e3a00001 	mov	r0, #1
   1549c:	e58d3018 	str	r3, [sp, #24]
   154a0:	ebfffe48 	bl	14dc8 <new_exp>
   154a4:	eafffef4 	b	1507c <__gettextparse+0x20c>
   154a8:	e3a02000 	mov	r2, #0
   154ac:	e3a01001 	mov	r1, #1
   154b0:	e1a00002 	mov	r0, r2
   154b4:	ebfffe43 	bl	14dc8 <new_exp>
   154b8:	e3500000 	cmp	r0, #0
   154bc:	15953000 	ldrne	r3, [r5]
   154c0:	15803008 	strne	r3, [r0, #8]
   154c4:	eafffeec 	b	1507c <__gettextparse+0x20c>
   154c8:	e3a02000 	mov	r2, #0
   154cc:	e1a01002 	mov	r1, r2
   154d0:	e1a00002 	mov	r0, r2
   154d4:	ebfffe3b 	bl	14dc8 <new_exp>
   154d8:	eafffee7 	b	1507c <__gettextparse+0x20c>
   154dc:	e59d2014 	ldr	r2, [sp, #20]
   154e0:	e2855004 	add	r5, r5, #4
   154e4:	e5852000 	str	r2, [r5]
   154e8:	e3a02003 	mov	r2, #3
   154ec:	e58d200c 	str	r2, [sp, #12]
   154f0:	eafffef7 	b	150d4 <__gettextparse+0x264>
   154f4:	e59d1010 	ldr	r1, [sp, #16]
   154f8:	e5812000 	str	r2, [r1]
   154fc:	e3a02c01 	mov	r2, #256	; 0x100
   15500:	e3a01001 	mov	r1, #1
   15504:	e58d2000 	str	r2, [sp]
   15508:	eafffe79 	b	14ef4 <__gettextparse+0x84>
   1550c:	e5dc0001 	ldrb	r0, [ip, #1]
   15510:	e241c030 	sub	ip, r1, #48	; 0x30
   15514:	e2401030 	sub	r1, r0, #48	; 0x30
   15518:	e3510009 	cmp	r1, #9
   1551c:	e58dc014 	str	ip, [sp, #20]
   15520:	8a000008 	bhi	15548 <__gettextparse+0x6d8>
   15524:	e1a0100c 	mov	r1, ip
   15528:	e0811101 	add	r1, r1, r1, lsl #2
   1552c:	e0801081 	add	r1, r0, r1, lsl #1
   15530:	e5f20001 	ldrb	r0, [r2, #1]!
   15534:	e2411030 	sub	r1, r1, #48	; 0x30
   15538:	e240c030 	sub	ip, r0, #48	; 0x30
   1553c:	e35c0009 	cmp	ip, #9
   15540:	9afffff8 	bls	15528 <__gettextparse+0x6b8>
   15544:	e58d1014 	str	r1, [sp, #20]
   15548:	e59d1010 	ldr	r1, [sp, #16]
   1554c:	e5812000 	str	r2, [r1]
   15550:	e59f2220 	ldr	r2, [pc, #544]	; 15778 <__gettextparse+0x908>
   15554:	e3a0100b 	mov	r1, #11
   15558:	e58d2000 	str	r2, [sp]
   1555c:	eafffe64 	b	14ef4 <__gettextparse+0x84>
   15560:	e19a10d1 	ldrsb	r1, [sl, r1]
   15564:	e59d0010 	ldr	r0, [sp, #16]
   15568:	e5802000 	str	r2, [r0]
   1556c:	eafffe60 	b	14ef4 <__gettextparse+0x84>
   15570:	e3a01000 	mov	r1, #0
   15574:	e59d2010 	ldr	r2, [sp, #16]
   15578:	e58d1000 	str	r1, [sp]
   1557c:	e582c000 	str	ip, [r2]
   15580:	eafffe5c 	b	14ef8 <__gettextparse+0x88>
   15584:	e5dc0001 	ldrb	r0, [ip, #1]
   15588:	e1500001 	cmp	r0, r1
   1558c:	1affffd8 	bne	154f4 <__gettextparse+0x684>
   15590:	e19a10d1 	ldrsb	r1, [sl, r1]
   15594:	e28c2002 	add	r2, ip, #2
   15598:	eafffff1 	b	15564 <__gettextparse+0x6f4>
   1559c:	e5dc1001 	ldrb	r1, [ip, #1]
   155a0:	e351003d 	cmp	r1, #61	; 0x3d
   155a4:	1affffd2 	bne	154f4 <__gettextparse+0x684>
   155a8:	e59d2010 	ldr	r2, [sp, #16]
   155ac:	e28cc002 	add	ip, ip, #2
   155b0:	e582c000 	str	ip, [r2]
   155b4:	e3a0200c 	mov	r2, #12
   155b8:	e58d2014 	str	r2, [sp, #20]
   155bc:	e28220f6 	add	r2, r2, #246	; 0xf6
   155c0:	e3a01006 	mov	r1, #6
   155c4:	e58d2000 	str	r2, [sp]
   155c8:	eafffe49 	b	14ef4 <__gettextparse+0x84>
   155cc:	e5dc1001 	ldrb	r1, [ip, #1]
   155d0:	e351003d 	cmp	r1, #61	; 0x3d
   155d4:	13a00021 	movne	r0, #33	; 0x21
   155d8:	13a0100a 	movne	r1, #10
   155dc:	158d0000 	strne	r0, [sp]
   155e0:	1affffdf 	bne	15564 <__gettextparse+0x6f4>
   155e4:	e59d2010 	ldr	r2, [sp, #16]
   155e8:	e28cc002 	add	ip, ip, #2
   155ec:	e582c000 	str	ip, [r2]
   155f0:	e3a0200d 	mov	r2, #13
   155f4:	e58d2014 	str	r2, [sp, #20]
   155f8:	e28220f5 	add	r2, r2, #245	; 0xf5
   155fc:	e3a01006 	mov	r1, #6
   15600:	e58d2000 	str	r2, [sp]
   15604:	eafffe3a 	b	14ef4 <__gettextparse+0x84>
   15608:	e59d1010 	ldr	r1, [sp, #16]
   1560c:	e5812000 	str	r2, [r1]
   15610:	e3a02005 	mov	r2, #5
   15614:	e58d2014 	str	r2, [sp, #20]
   15618:	e2822c01 	add	r2, r2, #256	; 0x100
   1561c:	e3a01009 	mov	r1, #9
   15620:	e58d2000 	str	r2, [sp]
   15624:	eafffe32 	b	14ef4 <__gettextparse+0x84>
   15628:	e5dc1001 	ldrb	r1, [ip, #1]
   1562c:	e351003d 	cmp	r1, #61	; 0x3d
   15630:	0a000037 	beq	15714 <__gettextparse+0x8a4>
   15634:	e59d1010 	ldr	r1, [sp, #16]
   15638:	e5812000 	str	r2, [r1]
   1563c:	e3a02009 	mov	r2, #9
   15640:	e58d2014 	str	r2, [sp, #20]
   15644:	e28220fa 	add	r2, r2, #250	; 0xfa
   15648:	e3a01007 	mov	r1, #7
   1564c:	e58d2000 	str	r2, [sp]
   15650:	eafffe27 	b	14ef4 <__gettextparse+0x84>
   15654:	e59d1010 	ldr	r1, [sp, #16]
   15658:	e5812000 	str	r2, [r1]
   1565c:	e3a02006 	mov	r2, #6
   15660:	e58d2014 	str	r2, [sp, #20]
   15664:	e3a02f41 	mov	r2, #260	; 0x104
   15668:	e3a01008 	mov	r1, #8
   1566c:	e58d2000 	str	r2, [sp]
   15670:	eafffe1f 	b	14ef4 <__gettextparse+0x84>
   15674:	e59d1010 	ldr	r1, [sp, #16]
   15678:	e5812000 	str	r2, [r1]
   1567c:	e3a02007 	mov	r2, #7
   15680:	e58d2014 	str	r2, [sp, #20]
   15684:	e3a02f41 	mov	r2, #260	; 0x104
   15688:	e3a01008 	mov	r1, #8
   1568c:	e58d2000 	str	r2, [sp]
   15690:	eafffe17 	b	14ef4 <__gettextparse+0x84>
   15694:	e59d1010 	ldr	r1, [sp, #16]
   15698:	e5812000 	str	r2, [r1]
   1569c:	e3a02003 	mov	r2, #3
   156a0:	e58d2014 	str	r2, [sp, #20]
   156a4:	e59f20d0 	ldr	r2, [pc, #208]	; 1577c <__gettextparse+0x90c>
   156a8:	e3a01009 	mov	r1, #9
   156ac:	e58d2000 	str	r2, [sp]
   156b0:	eafffe0f 	b	14ef4 <__gettextparse+0x84>
   156b4:	e59d1010 	ldr	r1, [sp, #16]
   156b8:	e5812000 	str	r2, [r1]
   156bc:	e3a02004 	mov	r2, #4
   156c0:	e58d2014 	str	r2, [sp, #20]
   156c4:	e59f20b0 	ldr	r2, [pc, #176]	; 1577c <__gettextparse+0x90c>
   156c8:	e3a01009 	mov	r1, #9
   156cc:	e58d2000 	str	r2, [sp]
   156d0:	eafffe07 	b	14ef4 <__gettextparse+0x84>
   156d4:	e5dc1001 	ldrb	r1, [ip, #1]
   156d8:	e351003d 	cmp	r1, #61	; 0x3d
   156dc:	0a000015 	beq	15738 <__gettextparse+0x8c8>
   156e0:	e59d1010 	ldr	r1, [sp, #16]
   156e4:	e5812000 	str	r2, [r1]
   156e8:	e3a02008 	mov	r2, #8
   156ec:	e58d2014 	str	r2, [sp, #20]
   156f0:	e28220fb 	add	r2, r2, #251	; 0xfb
   156f4:	e3a01007 	mov	r1, #7
   156f8:	e58d2000 	str	r2, [sp]
   156fc:	eafffdfc 	b	14ef4 <__gettextparse+0x84>
   15700:	e3a04002 	mov	r4, #2
   15704:	eafffe34 	b	14fdc <__gettextparse+0x16c>
   15708:	e1a07003 	mov	r7, r3
   1570c:	e3a04001 	mov	r4, #1
   15710:	eafffe34 	b	14fe8 <__gettextparse+0x178>
   15714:	e59d2010 	ldr	r2, [sp, #16]
   15718:	e28cc002 	add	ip, ip, #2
   1571c:	e582c000 	str	ip, [r2]
   15720:	e3a0200b 	mov	r2, #11
   15724:	e58d2014 	str	r2, [sp, #20]
   15728:	e28220f8 	add	r2, r2, #248	; 0xf8
   1572c:	e3a01007 	mov	r1, #7
   15730:	e58d2000 	str	r2, [sp]
   15734:	eafffdee 	b	14ef4 <__gettextparse+0x84>
   15738:	e59d2010 	ldr	r2, [sp, #16]
   1573c:	e28cc002 	add	ip, ip, #2
   15740:	e582c000 	str	ip, [r2]
   15744:	e3a0200a 	mov	r2, #10
   15748:	e58d2014 	str	r2, [sp, #20]
   1574c:	e28220f9 	add	r2, r2, #249	; 0xf9
   15750:	e3a01007 	mov	r1, #7
   15754:	e58d2000 	str	r2, [sp]
   15758:	eafffde5 	b	14ef4 <__gettextparse+0x84>
   1575c:	eb006bb2 	bl	3062c <__stack_chk_fail>
   15760:	00061ab8 	.word	0x00061ab8
   15764:	00061ac4 	.word	0x00061ac4
   15768:	00061ae0 	.word	0x00061ae0
   1576c:	00061ac0 	.word	0x00061ac0
   15770:	00061abc 	.word	0x00061abc
   15774:	0000270f 	.word	0x0000270f
   15778:	00000106 	.word	0x00000106
   1577c:	00000105 	.word	0x00000105

00015780 <__gettext_extract_plural>:
   15780:	e92d40f0 	push	{r4, r5, r6, r7, lr}
   15784:	e59f3100 	ldr	r3, [pc, #256]	; 1588c <__gettext_extract_plural+0x10c>
   15788:	e24dd014 	sub	sp, sp, #20
   1578c:	e2504000 	subs	r4, r0, #0
   15790:	e1a06001 	mov	r6, r1
   15794:	e1a05002 	mov	r5, r2
   15798:	e5933000 	ldr	r3, [r3]
   1579c:	e58d300c 	str	r3, [sp, #12]
   157a0:	e3a03000 	mov	r3, #0
   157a4:	0a00002b 	beq	15858 <__gettext_extract_plural+0xd8>
   157a8:	e59f10e0 	ldr	r1, [pc, #224]	; 15890 <__gettext_extract_plural+0x110>
   157ac:	eb00593f 	bl	2bcb0 <strstr>
   157b0:	e59f10dc 	ldr	r1, [pc, #220]	; 15894 <__gettext_extract_plural+0x114>
   157b4:	e1a07000 	mov	r7, r0
   157b8:	e1a00004 	mov	r0, r4
   157bc:	eb00593b 	bl	2bcb0 <strstr>
   157c0:	e3500000 	cmp	r0, #0
   157c4:	13570000 	cmpne	r7, #0
   157c8:	0a000022 	beq	15858 <__gettext_extract_plural+0xd8>
   157cc:	e5d03009 	ldrb	r3, [r0, #9]
   157d0:	e2804009 	add	r4, r0, #9
   157d4:	e3530000 	cmp	r3, #0
   157d8:	0a00001e 	beq	15858 <__gettext_extract_plural+0xd8>
   157dc:	ebffed97 	bl	10e40 <__aeabi_read_tp>
   157e0:	e59f20b0 	ldr	r2, [pc, #176]	; 15898 <__gettext_extract_plural+0x118>
   157e4:	e79f2002 	ldr	r2, [pc, r2]
   157e8:	e7902002 	ldr	r2, [r0, r2]
   157ec:	ea000002 	b	157fc <__gettext_extract_plural+0x7c>
   157f0:	e5f43001 	ldrb	r3, [r4, #1]!
   157f4:	e3530000 	cmp	r3, #0
   157f8:	0a000016 	beq	15858 <__gettext_extract_plural+0xd8>
   157fc:	e1a0c083 	lsl	ip, r3, #1
   15800:	e192c0bc 	ldrh	ip, [r2, ip]
   15804:	e31c0a02 	tst	ip, #8192	; 0x2000
   15808:	1afffff8 	bne	157f0 <__gettext_extract_plural+0x70>
   1580c:	e2433030 	sub	r3, r3, #48	; 0x30
   15810:	e3530009 	cmp	r3, #9
   15814:	8a00000f 	bhi	15858 <__gettext_extract_plural+0xd8>
   15818:	e3a0200a 	mov	r2, #10
   1581c:	e1a0100d 	mov	r1, sp
   15820:	e1a00004 	mov	r0, r4
   15824:	eb000397 	bl	16688 <__strtoul>
   15828:	e59d3000 	ldr	r3, [sp]
   1582c:	e1530004 	cmp	r3, r4
   15830:	0a000008 	beq	15858 <__gettext_extract_plural+0xd8>
   15834:	e5850000 	str	r0, [r5]
   15838:	e2877007 	add	r7, r7, #7
   1583c:	e28d0004 	add	r0, sp, #4
   15840:	e58d7004 	str	r7, [sp, #4]
   15844:	ebfffd89 	bl	14e70 <__gettextparse>
   15848:	e3500000 	cmp	r0, #0
   1584c:	059d3008 	ldreq	r3, [sp, #8]
   15850:	05863000 	streq	r3, [r6]
   15854:	0a000003 	beq	15868 <__gettext_extract_plural+0xe8>
   15858:	e3a03002 	mov	r3, #2
   1585c:	e59f2038 	ldr	r2, [pc, #56]	; 1589c <__gettext_extract_plural+0x11c>
   15860:	e5862000 	str	r2, [r6]
   15864:	e5853000 	str	r3, [r5]
   15868:	e59f301c 	ldr	r3, [pc, #28]	; 1588c <__gettext_extract_plural+0x10c>
   1586c:	e5932000 	ldr	r2, [r3]
   15870:	e59d300c 	ldr	r3, [sp, #12]
   15874:	e0332002 	eors	r2, r3, r2
   15878:	e3a03000 	mov	r3, #0
   1587c:	1a000001 	bne	15888 <__gettext_extract_plural+0x108>
   15880:	e28dd014 	add	sp, sp, #20
   15884:	e8bd80f0 	pop	{r4, r5, r6, r7, pc}
   15888:	eb006b67 	bl	3062c <__stack_chk_fail>
   1588c:	00061ca8 	.word	0x00061ca8
   15890:	00061c94 	.word	0x00061c94
   15894:	00061c9c 	.word	0x00061c9c
   15898:	0007486c 	.word	0x0007486c
   1589c:	00061cac 	.word	0x00061cac

000158a0 <__hash_string>:
   158a0:	e1a02000 	mov	r2, r0
   158a4:	e5d00000 	ldrb	r0, [r0]
   158a8:	e3500000 	cmp	r0, #0
   158ac:	012fff1e 	bxeq	lr
   158b0:	e5f23001 	ldrb	r3, [r2, #1]!
   158b4:	e3530000 	cmp	r3, #0
   158b8:	012fff1e 	bxeq	lr
   158bc:	e0830200 	add	r0, r3, r0, lsl #4
   158c0:	e210320f 	ands	r3, r0, #-268435456	; 0xf0000000
   158c4:	13c0020f 	bicne	r0, r0, #-268435456	; 0xf0000000
   158c8:	10200c23 	eorne	r0, r0, r3, lsr #24
   158cc:	eafffff7 	b	158b0 <__hash_string+0x10>

000158d0 <_setjmp>:
   158d0:	e3a01000 	mov	r1, #0
   158d4:	ea00a3ed 	b	3e890 <__sigsetjmp>

000158d8 <atoi>:
   158d8:	e3a0200a 	mov	r2, #10
   158dc:	e3a01000 	mov	r1, #0
   158e0:	ea00034b 	b	16614 <__strtol>

000158e4 <msort_with_tmp.part.0>:
   158e4:	e92d4ff0 	push	{r4, r5, r6, r7, r8, r9, sl, fp, lr}
   158e8:	e1a03002 	mov	r3, r2
   158ec:	e24dd014 	sub	sp, sp, #20
   158f0:	e58d2008 	str	r2, [sp, #8]
   158f4:	e1a02001 	mov	r2, r1
   158f8:	e5906000 	ldr	r6, [r0]
   158fc:	e1a070a3 	lsr	r7, r3, #1
   15900:	e0222796 	mla	r2, r6, r7, r2
   15904:	e3570001 	cmp	r7, #1
   15908:	e1a08000 	mov	r8, r0
   1590c:	e1a06002 	mov	r6, r2
   15910:	e58d1000 	str	r1, [sp]
   15914:	e04350a3 	sub	r5, r3, r3, lsr #1
   15918:	0a000001 	beq	15924 <msort_with_tmp.part.0+0x40>
   1591c:	e1a02007 	mov	r2, r7
   15920:	ebffffef 	bl	158e4 <msort_with_tmp.part.0>
   15924:	e3550001 	cmp	r5, #1
   15928:	9a000077 	bls	15b0c <msort_with_tmp.part.0+0x228>
   1592c:	e1a02005 	mov	r2, r5
   15930:	e1a01006 	mov	r1, r6
   15934:	e1a00008 	mov	r0, r8
   15938:	ebffffe9 	bl	158e4 <msort_with_tmp.part.0>
   1593c:	e5982000 	ldr	r2, [r8]
   15940:	e5983004 	ldr	r3, [r8, #4]
   15944:	e5984010 	ldr	r4, [r8, #16]
   15948:	e598a008 	ldr	sl, [r8, #8]
   1594c:	e598900c 	ldr	r9, [r8, #12]
   15950:	e58d2004 	str	r2, [sp, #4]
   15954:	e3530003 	cmp	r3, #3
   15958:	979ff103 	ldrls	pc, [pc, r3, lsl #2]
   1595c:	ea000079 	b	15b48 <msort_with_tmp.part.0+0x264>
   15960:	00015ac8 	.word	0x00015ac8
   15964:	00015a74 	.word	0x00015a74
   15968:	000159e0 	.word	0x000159e0
   1596c:	00015970 	.word	0x00015970
   15970:	e3550000 	cmp	r5, #0
   15974:	159db000 	ldrne	fp, [sp]
   15978:	0a000040 	beq	15a80 <msort_with_tmp.part.0+0x19c>
   1597c:	e5961000 	ldr	r1, [r6]
   15980:	e59b0000 	ldr	r0, [fp]
   15984:	e1a02009 	mov	r2, r9
   15988:	e12fff3a 	blx	sl
   1598c:	e3500000 	cmp	r0, #0
   15990:	d2477001 	suble	r7, r7, #1
   15994:	c2455001 	subgt	r5, r5, #1
   15998:	d49b3004 	ldrle	r3, [fp], #4
   1599c:	c4963004 	ldrgt	r3, [r6], #4
   159a0:	e3570000 	cmp	r7, #0
   159a4:	13550000 	cmpne	r5, #0
   159a8:	e4843004 	str	r3, [r4], #4
   159ac:	1afffff2 	bne	1597c <msort_with_tmp.part.0+0x98>
   159b0:	e3570000 	cmp	r7, #0
   159b4:	1a000028 	bne	15a5c <msort_with_tmp.part.0+0x178>
   159b8:	e59d3008 	ldr	r3, [sp, #8]
   159bc:	e5981010 	ldr	r1, [r8, #16]
   159c0:	e0432005 	sub	r2, r3, r5
   159c4:	e59d3004 	ldr	r3, [sp, #4]
   159c8:	e59d0000 	ldr	r0, [sp]
   159cc:	e0030392 	mul	r3, r2, r3
   159d0:	e1a02003 	mov	r2, r3
   159d4:	e28dd014 	add	sp, sp, #20
   159d8:	e8bd4ff0 	pop	{r4, r5, r6, r7, r8, r9, sl, fp, lr}
   159dc:	ea005b47 	b	2c700 <memcpy>
   159e0:	e3550000 	cmp	r5, #0
   159e4:	0a000025 	beq	15a80 <msort_with_tmp.part.0+0x19c>
   159e8:	e58d800c 	str	r8, [sp, #12]
   159ec:	e59db000 	ldr	fp, [sp]
   159f0:	e1a08006 	mov	r8, r6
   159f4:	e59d6004 	ldr	r6, [sp, #4]
   159f8:	e1a02009 	mov	r2, r9
   159fc:	e1a01008 	mov	r1, r8
   15a00:	e1a0000b 	mov	r0, fp
   15a04:	e12fff3a 	blx	sl
   15a08:	e0844006 	add	r4, r4, r6
   15a0c:	e3500000 	cmp	r0, #0
   15a10:	e0443006 	sub	r3, r4, r6
   15a14:	d1a0200b 	movle	r2, fp
   15a18:	c1a02008 	movgt	r2, r8
   15a1c:	d2477001 	suble	r7, r7, #1
   15a20:	d08bb006 	addle	fp, fp, r6
   15a24:	c2455001 	subgt	r5, r5, #1
   15a28:	c0888006 	addgt	r8, r8, r6
   15a2c:	e1540003 	cmp	r4, r3
   15a30:	9a000003 	bls	15a44 <msort_with_tmp.part.0+0x160>
   15a34:	e4921004 	ldr	r1, [r2], #4
   15a38:	e4831004 	str	r1, [r3], #4
   15a3c:	e1540003 	cmp	r4, r3
   15a40:	8afffffb 	bhi	15a34 <msort_with_tmp.part.0+0x150>
   15a44:	e3570000 	cmp	r7, #0
   15a48:	13550000 	cmpne	r5, #0
   15a4c:	1affffe9 	bne	159f8 <msort_with_tmp.part.0+0x114>
   15a50:	e3570000 	cmp	r7, #0
   15a54:	e59d800c 	ldr	r8, [sp, #12]
   15a58:	0affffd6 	beq	159b8 <msort_with_tmp.part.0+0xd4>
   15a5c:	e59d2004 	ldr	r2, [sp, #4]
   15a60:	e1a0100b 	mov	r1, fp
   15a64:	e1a00004 	mov	r0, r4
   15a68:	e0020297 	mul	r2, r7, r2
   15a6c:	eb005b23 	bl	2c700 <memcpy>
   15a70:	eaffffd0 	b	159b8 <msort_with_tmp.part.0+0xd4>
   15a74:	e3550000 	cmp	r5, #0
   15a78:	159db000 	ldrne	fp, [sp]
   15a7c:	1a000008 	bne	15aa4 <msort_with_tmp.part.0+0x1c0>
   15a80:	e3a05000 	mov	r5, #0
   15a84:	e59db000 	ldr	fp, [sp]
   15a88:	eafffff3 	b	15a5c <msort_with_tmp.part.0+0x178>
   15a8c:	e2455001 	sub	r5, r5, #1
   15a90:	e8b60003 	ldm	r6!, {r0, r1}
   15a94:	e3570000 	cmp	r7, #0
   15a98:	13550000 	cmpne	r5, #0
   15a9c:	e8a40003 	stmia	r4!, {r0, r1}
   15aa0:	0affffc2 	beq	159b0 <msort_with_tmp.part.0+0xcc>
   15aa4:	e1a02009 	mov	r2, r9
   15aa8:	e1a01006 	mov	r1, r6
   15aac:	e1a0000b 	mov	r0, fp
   15ab0:	e12fff3a 	blx	sl
   15ab4:	e3500000 	cmp	r0, #0
   15ab8:	cafffff3 	bgt	15a8c <msort_with_tmp.part.0+0x1a8>
   15abc:	e8bb0003 	ldm	fp!, {r0, r1}
   15ac0:	e2477001 	sub	r7, r7, #1
   15ac4:	eafffff2 	b	15a94 <msort_with_tmp.part.0+0x1b0>
   15ac8:	e3550000 	cmp	r5, #0
   15acc:	159db000 	ldrne	fp, [sp]
   15ad0:	0affffea 	beq	15a80 <msort_with_tmp.part.0+0x19c>
   15ad4:	e1a01006 	mov	r1, r6
   15ad8:	e1a0000b 	mov	r0, fp
   15adc:	e1a02009 	mov	r2, r9
   15ae0:	e12fff3a 	blx	sl
   15ae4:	e3500000 	cmp	r0, #0
   15ae8:	d2477001 	suble	r7, r7, #1
   15aec:	c2455001 	subgt	r5, r5, #1
   15af0:	d49b3004 	ldrle	r3, [fp], #4
   15af4:	c4963004 	ldrgt	r3, [r6], #4
   15af8:	e3570000 	cmp	r7, #0
   15afc:	13550000 	cmpne	r5, #0
   15b00:	e4843004 	str	r3, [r4], #4
   15b04:	1afffff2 	bne	15ad4 <msort_with_tmp.part.0+0x1f0>
   15b08:	eaffffa8 	b	159b0 <msort_with_tmp.part.0+0xcc>
   15b0c:	e5982000 	ldr	r2, [r8]
   15b10:	e5983004 	ldr	r3, [r8, #4]
   15b14:	e5984010 	ldr	r4, [r8, #16]
   15b18:	e598a008 	ldr	sl, [r8, #8]
   15b1c:	e598900c 	ldr	r9, [r8, #12]
   15b20:	e58d2004 	str	r2, [sp, #4]
   15b24:	e3530003 	cmp	r3, #3
   15b28:	979ff103 	ldrls	pc, [pc, r3, lsl #2]
   15b2c:	ea000003 	b	15b40 <msort_with_tmp.part.0+0x25c>
   15b30:	00015ac8 	.word	0x00015ac8
   15b34:	00015a74 	.word	0x00015a74
   15b38:	000159e0 	.word	0x000159e0
   15b3c:	00015970 	.word	0x00015970
   15b40:	e3550000 	cmp	r5, #0
   15b44:	0affffcd 	beq	15a80 <msort_with_tmp.part.0+0x19c>
   15b48:	e58d800c 	str	r8, [sp, #12]
   15b4c:	e59db000 	ldr	fp, [sp]
   15b50:	e1a08005 	mov	r8, r5
   15b54:	e59d5004 	ldr	r5, [sp, #4]
   15b58:	e1a02009 	mov	r2, r9
   15b5c:	e1a01006 	mov	r1, r6
   15b60:	e1a0000b 	mov	r0, fp
   15b64:	e12fff3a 	blx	sl
   15b68:	e3500000 	cmp	r0, #0
   15b6c:	e1a02005 	mov	r2, r5
   15b70:	e1a00004 	mov	r0, r4
   15b74:	da000009 	ble	15ba0 <msort_with_tmp.part.0+0x2bc>
   15b78:	e1a01006 	mov	r1, r6
   15b7c:	eb005abe 	bl	2c67c <__mempcpy>
   15b80:	e1a04000 	mov	r4, r0
   15b84:	e2488001 	sub	r8, r8, #1
   15b88:	e0866005 	add	r6, r6, r5
   15b8c:	e3570000 	cmp	r7, #0
   15b90:	13580000 	cmpne	r8, #0
   15b94:	1affffef 	bne	15b58 <msort_with_tmp.part.0+0x274>
   15b98:	e1a05008 	mov	r5, r8
   15b9c:	eaffffab 	b	15a50 <msort_with_tmp.part.0+0x16c>
   15ba0:	e1a0100b 	mov	r1, fp
   15ba4:	eb005ab4 	bl	2c67c <__mempcpy>
   15ba8:	e2477001 	sub	r7, r7, #1
   15bac:	e1a04000 	mov	r4, r0
   15bb0:	e08bb005 	add	fp, fp, r5
   15bb4:	eafffff4 	b	15b8c <msort_with_tmp.part.0+0x2a8>

00015bb8 <__qsort_r>:
   15bb8:	e92d4ff0 	push	{r4, r5, r6, r7, r8, r9, sl, fp, lr}
   15bbc:	e28db020 	add	fp, sp, #32
   15bc0:	e24dd03c 	sub	sp, sp, #60	; 0x3c
   15bc4:	e3520020 	cmp	r2, #32
   15bc8:	e50b1040 	str	r1, [fp, #-64]	; 0xffffffc0
   15bcc:	90010192 	mulls	r1, r2, r1
   15bd0:	e1a05003 	mov	r5, r3
   15bd4:	e59f32e8 	ldr	r3, [pc, #744]	; 15ec4 <__qsort_r+0x30c>
   15bd8:	e50b0044 	str	r0, [fp, #-68]	; 0xffffffbc
   15bdc:	e5933000 	ldr	r3, [r3]
   15be0:	e50b3028 	str	r3, [fp, #-40]	; 0xffffffd8
   15be4:	e3a03000 	mov	r3, #0
   15be8:	91a04001 	movls	r4, r1
   15bec:	851b3040 	ldrhi	r3, [fp, #-64]	; 0xffffffc0
   15bf0:	e1a06002 	mov	r6, r2
   15bf4:	80824183 	addhi	r4, r2, r3, lsl #3
   15bf8:	e3540b01 	cmp	r4, #1024	; 0x400
   15bfc:	e59b7004 	ldr	r7, [fp, #4]
   15c00:	2a00006a 	bcs	15db0 <__qsort_r+0x1f8>
   15c04:	e2844007 	add	r4, r4, #7
   15c08:	e3c44007 	bic	r4, r4, #7
   15c0c:	e04dd004 	sub	sp, sp, r4
   15c10:	e28d3008 	add	r3, sp, #8
   15c14:	e50b302c 	str	r3, [fp, #-44]	; 0xffffffd4
   15c18:	e3a03000 	mov	r3, #0
   15c1c:	e50b3050 	str	r3, [fp, #-80]	; 0xffffffb0
   15c20:	e3a03004 	mov	r3, #4
   15c24:	e3560020 	cmp	r6, #32
   15c28:	e50b603c 	str	r6, [fp, #-60]	; 0xffffffc4
   15c2c:	e50b5034 	str	r5, [fp, #-52]	; 0xffffffcc
   15c30:	e50b7030 	str	r7, [fp, #-48]	; 0xffffffd0
   15c34:	e50b3038 	str	r3, [fp, #-56]	; 0xffffffc8
   15c38:	9a000046 	bls	15d58 <__qsort_r+0x1a0>
   15c3c:	e51b2040 	ldr	r2, [fp, #-64]	; 0xffffffc0
   15c40:	e51b302c 	ldr	r3, [fp, #-44]	; 0xffffffd4
   15c44:	e1a00102 	lsl	r0, r2, #2
   15c48:	e0831182 	add	r1, r3, r2, lsl #3
   15c4c:	e0837102 	add	r7, r3, r2, lsl #2
   15c50:	e1570001 	cmp	r7, r1
   15c54:	e50b1048 	str	r1, [fp, #-72]	; 0xffffffb8
   15c58:	2a000096 	bcs	15eb8 <__qsort_r+0x300>
   15c5c:	e1a02007 	mov	r2, r7
   15c60:	e51b3044 	ldr	r3, [fp, #-68]	; 0xffffffbc
   15c64:	e4823004 	str	r3, [r2], #4
   15c68:	e1510002 	cmp	r1, r2
   15c6c:	e0833006 	add	r3, r3, r6
   15c70:	8afffffb 	bhi	15c64 <__qsort_r+0xac>
   15c74:	e51b102c 	ldr	r1, [fp, #-44]	; 0xffffffd4
   15c78:	e0811000 	add	r1, r1, r0
   15c7c:	e3a02004 	mov	r2, #4
   15c80:	e3a03003 	mov	r3, #3
   15c84:	e51b0040 	ldr	r0, [fp, #-64]	; 0xffffffc0
   15c88:	e50b203c 	str	r2, [fp, #-60]	; 0xffffffc4
   15c8c:	e3500001 	cmp	r0, #1
   15c90:	e50b3038 	str	r3, [fp, #-56]	; 0xffffffc8
   15c94:	9a000064 	bls	15e2c <__qsort_r+0x274>
   15c98:	e1a02000 	mov	r2, r0
   15c9c:	e24b003c 	sub	r0, fp, #60	; 0x3c
   15ca0:	ebffff0f 	bl	158e4 <msort_with_tmp.part.0>
   15ca4:	e3a08000 	mov	r8, #0
   15ca8:	e51ba044 	ldr	sl, [fp, #-68]	; 0xffffffbc
   15cac:	ea000004 	b	15cc4 <__qsort_r+0x10c>
   15cb0:	e51b3040 	ldr	r3, [fp, #-64]	; 0xffffffc0
   15cb4:	e2888001 	add	r8, r8, #1
   15cb8:	e1530008 	cmp	r3, r8
   15cbc:	e08aa006 	add	sl, sl, r6
   15cc0:	9a000030 	bls	15d88 <__qsort_r+0x1d0>
   15cc4:	e7974108 	ldr	r4, [r7, r8, lsl #2]
   15cc8:	e154000a 	cmp	r4, sl
   15ccc:	0afffff7 	beq	15cb0 <__qsort_r+0xf8>
   15cd0:	e1a02006 	mov	r2, r6
   15cd4:	e1a0100a 	mov	r1, sl
   15cd8:	e51b0048 	ldr	r0, [fp, #-72]	; 0xffffffb8
   15cdc:	eb005a87 	bl	2c700 <memcpy>
   15ce0:	e1a05008 	mov	r5, r8
   15ce4:	e50b804c 	str	r8, [fp, #-76]	; 0xffffffb4
   15ce8:	e1a0900a 	mov	r9, sl
   15cec:	e1a08006 	mov	r8, r6
   15cf0:	e51b6044 	ldr	r6, [fp, #-68]	; 0xffffffbc
   15cf4:	ea000000 	b	15cfc <__qsort_r+0x144>
   15cf8:	e1a04003 	mov	r4, r3
   15cfc:	e1a01008 	mov	r1, r8
   15d00:	e0440006 	sub	r0, r4, r6
   15d04:	eb012372 	bl	5ead4 <__udivsi3>
   15d08:	e1a03005 	mov	r3, r5
   15d0c:	e1a05000 	mov	r5, r0
   15d10:	e7879103 	str	r9, [r7, r3, lsl #2]
   15d14:	e1a00009 	mov	r0, r9
   15d18:	e1a02008 	mov	r2, r8
   15d1c:	e1a01004 	mov	r1, r4
   15d20:	eb005a76 	bl	2c700 <memcpy>
   15d24:	e7973105 	ldr	r3, [r7, r5, lsl #2]
   15d28:	e1a09004 	mov	r9, r4
   15d2c:	e153000a 	cmp	r3, sl
   15d30:	e0870105 	add	r0, r7, r5, lsl #2
   15d34:	1affffef 	bne	15cf8 <__qsort_r+0x140>
   15d38:	e1a06008 	mov	r6, r8
   15d3c:	e5804000 	str	r4, [r0]
   15d40:	e1a02006 	mov	r2, r6
   15d44:	e1a00004 	mov	r0, r4
   15d48:	e51b1048 	ldr	r1, [fp, #-72]	; 0xffffffb8
   15d4c:	e51b804c 	ldr	r8, [fp, #-76]	; 0xffffffb4
   15d50:	eb005a6a 	bl	2c700 <memcpy>
   15d54:	eaffffd5 	b	15cb0 <__qsort_r+0xf8>
   15d58:	e3160003 	tst	r6, #3
   15d5c:	1a000002 	bne	15d6c <__qsort_r+0x1b4>
   15d60:	e51b3044 	ldr	r3, [fp, #-68]	; 0xffffffbc
   15d64:	e2133003 	ands	r3, r3, #3
   15d68:	0a000028 	beq	15e10 <__qsort_r+0x258>
   15d6c:	e51b3040 	ldr	r3, [fp, #-64]	; 0xffffffc0
   15d70:	e3530001 	cmp	r3, #1
   15d74:	9a000003 	bls	15d88 <__qsort_r+0x1d0>
   15d78:	e1a02003 	mov	r2, r3
   15d7c:	e51b1044 	ldr	r1, [fp, #-68]	; 0xffffffbc
   15d80:	e24b003c 	sub	r0, fp, #60	; 0x3c
   15d84:	ebfffed6 	bl	158e4 <msort_with_tmp.part.0>
   15d88:	e51b0050 	ldr	r0, [fp, #-80]	; 0xffffffb0
   15d8c:	eb004f80 	bl	29b94 <__free>
   15d90:	e59f312c 	ldr	r3, [pc, #300]	; 15ec4 <__qsort_r+0x30c>
   15d94:	e5932000 	ldr	r2, [r3]
   15d98:	e51b3028 	ldr	r3, [fp, #-40]	; 0xffffffd8
   15d9c:	e0332002 	eors	r2, r3, r2
   15da0:	e3a03000 	mov	r3, #0
   15da4:	1a000045 	bne	15ec0 <__qsort_r+0x308>
   15da8:	e24bd020 	sub	sp, fp, #32
   15dac:	e8bd8ff0 	pop	{r4, r5, r6, r7, r8, r9, sl, fp, pc}
   15db0:	e59f8110 	ldr	r8, [pc, #272]	; 15ec8 <__qsort_r+0x310>
   15db4:	e5981000 	ldr	r1, [r8]
   15db8:	e3510000 	cmp	r1, #0
   15dbc:	0a000025 	beq	15e58 <__qsort_r+0x2a0>
   15dc0:	e1a00004 	mov	r0, r4
   15dc4:	eb012342 	bl	5ead4 <__udivsi3>
   15dc8:	e5983004 	ldr	r3, [r8, #4]
   15dcc:	e1500003 	cmp	r0, r3
   15dd0:	8a000019 	bhi	15e3c <__qsort_r+0x284>
   15dd4:	ebffec19 	bl	10e40 <__aeabi_read_tp>
   15dd8:	e1a08000 	mov	r8, r0
   15ddc:	e59f30e8 	ldr	r3, [pc, #232]	; 15ecc <__qsort_r+0x314>
   15de0:	e1a00004 	mov	r0, r4
   15de4:	e79f3003 	ldr	r3, [pc, r3]
   15de8:	e7984003 	ldr	r4, [r8, r3]
   15dec:	eb004dda 	bl	2955c <__libc_malloc>
   15df0:	e59f30d8 	ldr	r3, [pc, #216]	; 15ed0 <__qsort_r+0x318>
   15df4:	e2502000 	subs	r2, r0, #0
   15df8:	e50b2050 	str	r2, [fp, #-80]	; 0xffffffb0
   15dfc:	e79f3003 	ldr	r3, [pc, r3]
   15e00:	e7884003 	str	r4, [r8, r3]
   15e04:	0a00000c 	beq	15e3c <__qsort_r+0x284>
   15e08:	e50b202c 	str	r2, [fp, #-44]	; 0xffffffd4
   15e0c:	eaffff83 	b	15c20 <__qsort_r+0x68>
   15e10:	e3560004 	cmp	r6, #4
   15e14:	0a000002 	beq	15e24 <__qsort_r+0x26c>
   15e18:	e3560008 	cmp	r6, #8
   15e1c:	0a00001f 	beq	15ea0 <__qsort_r+0x2e8>
   15e20:	e3a03002 	mov	r3, #2
   15e24:	e50b3038 	str	r3, [fp, #-56]	; 0xffffffc8
   15e28:	eaffffcf 	b	15d6c <__qsort_r+0x1b4>
   15e2c:	e51b3040 	ldr	r3, [fp, #-64]	; 0xffffffc0
   15e30:	e3530000 	cmp	r3, #0
   15e34:	1affff9a 	bne	15ca4 <__qsort_r+0xec>
   15e38:	eaffffd2 	b	15d88 <__qsort_r+0x1d0>
   15e3c:	e1a03005 	mov	r3, r5
   15e40:	e1a02006 	mov	r2, r6
   15e44:	e51b1040 	ldr	r1, [fp, #-64]	; 0xffffffc0
   15e48:	e51b0044 	ldr	r0, [fp, #-68]	; 0xffffffbc
   15e4c:	e58d7000 	str	r7, [sp]
   15e50:	eb00a398 	bl	3ecb8 <_quicksort>
   15e54:	eaffffcd 	b	15d90 <__qsort_r+0x1d8>
   15e58:	e3a00055 	mov	r0, #85	; 0x55
   15e5c:	eb005e93 	bl	2d8b0 <__sysconf>
   15e60:	e3700001 	cmn	r0, #1
   15e64:	03e0320e 	mvneq	r3, #-536870912	; 0xe0000000
   15e68:	0a000003 	beq	15e7c <__qsort_r+0x2c4>
   15e6c:	e2803003 	add	r3, r0, #3
   15e70:	e3500000 	cmp	r0, #0
   15e74:	b1a00003 	movlt	r0, r3
   15e78:	e1a03140 	asr	r3, r0, #2
   15e7c:	e5883004 	str	r3, [r8, #4]
   15e80:	e3e0ca0f 	mvn	ip, #61440	; 0xf000
   15e84:	e1a0e00f 	mov	lr, pc
   15e88:	e24cf05f 	sub	pc, ip, #95	; 0x5f
   15e8c:	e3a0001e 	mov	r0, #30
   15e90:	eb005e86 	bl	2d8b0 <__sysconf>
   15e94:	e1a01000 	mov	r1, r0
   15e98:	e5880000 	str	r0, [r8]
   15e9c:	eaffffc7 	b	15dc0 <__qsort_r+0x208>
   15ea0:	e51b3044 	ldr	r3, [fp, #-68]	; 0xffffffbc
   15ea4:	e3130007 	tst	r3, #7
   15ea8:	03a03001 	moveq	r3, #1
   15eac:	050b3038 	streq	r3, [fp, #-56]	; 0xffffffc8
   15eb0:	0affffad 	beq	15d6c <__qsort_r+0x1b4>
   15eb4:	eaffffd9 	b	15e20 <__qsort_r+0x268>
   15eb8:	e1a01007 	mov	r1, r7
   15ebc:	eaffff6e 	b	15c7c <__qsort_r+0xc4>
   15ec0:	eb0069d9 	bl	3062c <__stack_chk_fail>
   15ec4:	00061cec 	.word	0x00061cec
   15ec8:	0008b154 	.word	0x0008b154
